(dp1
S'shrMOQmX_SX-KualwYoAzA'
p2
I271161
sS'I20CbrlaXqC3kL1VQBLtpg'
p3
I267908
sS'JWvdQoRe00tbdNwfZYeK6g'
p4
I267908
sS'ykBWmSL1yDrAob2a20b2DQ'
p5
I267955
sS'z4I2htpnkdqY_9DYDfuRgA'
p6
I112547
sS'DIYHTgM-YGKWOWLzQ4XVhA'
p7
I112547
sS'cA77EZOm-TmUwLsQMrE07A'
p8
I343509
sS'VZYMInkjRJVHwXVFqeoMWg'
p9
I267926
sS'XzR49vhfm5ugcPJ3x_c2KQ'
p10
I267908
sS'RA2EuX04SHqmayKpLhpNvA'
p11
I267912
sS'wdEnI9WTLHiqSCH1RdJ40w'
p12
I267908
sS'pKp50rYh0iWZYKiWmWmLow'
p13
I267926
sS'YYcLG6uNWpCPOmbq1B1xMg'
p14
I267908
sS'hGwnLUZ10za8Mt1IDOOjMw'
p15
I112547
sS'687wG68J1XicP5YzMqKqFQ'
p16
I272894
sS'nGXmyYLv7mS30A0BMyemvw'
p17
I273505
sS'mh1le9QGMrZLohAjfheJJg'
p18
I275391
sS'2iiCazdKZjFYy46FR8iySA'
p19
I275735
sS'6apEKjkj5j1W1sS1dSwWyA'
p20
I267912
sS'hbzuaYz09idmEO7batzt1w'
p21
I267926
sS'lxloQZzZjX6ftk-SipI1wA'
p22
I267955
sS'p_HFt0I92MHDNPWvdtyEBA'
p23
I274989
sS'FBYkEvOEz_Emkh904a-eQQ'
p24
I275811
sS'vXBc-i30S0eypUVy7TA6cw'
p25
I210081
sS'UOLNw0-7GjxomFQiHUXisA'
p26
I180250
sS'yb17xHvhDJthJGS10uhFeQ'
p27
I267908
sS'fVRGT6shuyHPLzKikZsD0g'
p28
I271161
sS'-xymuZ9qLUwGQBD9FxldGQ'
p29
I274732
sS'Lw-01HQDswygHvAZfwkpxA'
p30
I274959
sS'F3L3UuWJUez6ybJr4y5Agw'
p31
I267912
sS'ffDnv5ujTzjQviNQ09ViVg'
p32
I267926
sS'Kg2RgeF6l6gEem8XhTx5kQ'
p33
I267908
sS'HSQ2YcLg5BZK-gwvEMrS6A'
p34
I267908
sS'6DDXjYE9g6KVH0qP_jJiUg'
p35
I270315
sS'hzEFfuz2mOA3whGk8UZxjQ'
p36
I215515
sS'hD8McD6pHAKF9SMbhi-SSw'
p37
I111818
sS'SvABdZuEdrA8nMaW6XKSaw'
p38
I267908
sS'z9RjkAPe-00LGoBJjQadOw'
p39
I267955
sS'tvqYUrClvAKzOjbGxUio6A'
p40
I267926
sS's74Tq6WKV1b91UFRr7ch7g'
p41
I271179
sS'EUfVkqNFv5Ay0W7nbaivJA'
p42
I112547
sS'IBWpWY7_rC9FMOXYOL3i6A'
p43
I111818
sS'i8X14GDzaYD_TOGeWjmv-A'
p44
I267908
sS'Eixtf79t1_ZKaC-7J2kAWg'
p45
I271169
sS'RT-0cJb_8-WYhRuCfKxDjw'
p46
I274743
sS'7XX-2YyRTLVvki-qsM3sVQ'
p47
I216117
sS'Pu5uzlZ05pqVlx6LcZbfgw'
p48
I215515
sS'MLVKDbuI2xaOJQ4-NZj2MQ'
p49
I275454
sS'pvukd8Pn1lNbzezXmGyx-Q'
p50
I267908
sS'jwxhi--674LLCnvqJL7SRQ'
p51
I215515
sS'5A_vuyESZFU9eCArpVfJCw'
p52
I267908
sS'cPTTiNWQA8PFvba9iXzi-w'
p53
I111818
sS'TToyZWEp9FAmR2k4qucPIA'
p54
I270312
sS'M89wkxqAcXuVMtWh91BIjg'
p55
I274118
sS'I2IofjP2sHZUkv7pcoc33A'
p56
I267908
sS'C9CF7p53Y0L5ErKRhhFhng'
p57
I270315
sS'2fXVpii6fawN7qCL_M2Urw'
p58
I267908
sS'e6i8v7VkD8yJk02PH4d9VA'
p59
I112547
sS'SzHTdZR3yY1WBYUxkVxmUQ'
p60
I271161
sS'y9cQ0DBC0qFNgkpTXHzokA'
p61
I272734
sS'Zwe8_7Z_-rYUBZHiMQpsbg'
p62
I267926
sS'WuCcv_Dyd_1B_1-4jwK7sQ'
p63
I270315
sS'CVK9ciUclX3rlMl3X9M_Hw'
p64
I215515
sS'gZEUfwSZDuVtLDWl96kiFA'
p65
I215515
sS'VC0VbRhQqvXpolK3pFuZPw'
p66
I272734
sS'j3nqWy30B-663uuc1AbDbQ'
p67
I274743
sS'tw3wtf5ou5TcuIvidn3cOQ'
p68
I276007
sS'_4VapLIt_vHJ0iL_qnMzeQ'
p69
I267908
sS'_Bz6YWNI5bi0gqQI4GLvqQ'
p70
I274959
sS'HJoLNZFj-KR3uWQO6lzNrg'
p71
I267955
sS'YhFwM5Y69ZdaMQbH4TulWg'
p72
I267971
sS'TUBkIzyhjbiLZoECrkD9Ag'
p73
I275811
sS'qPfX87VuYeBMgM2B0Zr1hQ'
p74
I267908
sS'dsOZa4ox94jUyJRAFnt54g'
p75
I275812
sS'GEOvDyO6UT4kQ6g2M56Ubg'
p76
I112547
sS'iNvY0zAlaD_ye7Z6rHu-Ug'
p77
I267908
sS'ZNeCNP1DZ6hRIpT0q-p6Kg'
p78
I272954
sS'9tefv6uPxoHhp_OlQQJVXA'
p79
I267908
sS'3m7khDnqH9QOg8gu3Ymumw'
p80
I267908
sS'1nUhZPE06iQRKI6_z78IjA'
p81
I275947
sS'JId-omv3reUpFcL0dhhegQ'
p82
I275811
sS'zwJX3eetOhpi-gv4-E4rcQ'
p83
I111818
sS'WzhHlaEyaHE4KIFfcqC_9g'
p84
I267908
sS'IX8FoKD6Gjha0pePoBrSqQ'
p85
I215515
sS'Hv10jR9cibOGEICeVRQvJQ'
p86
I274959
sS'-s-OW4Kr9YY3SBmRdpgFdQ'
p87
I273548
sS'pfS0Bd-sXZyMNr73kJPeaw'
p88
I271161
sS'GSiHJG8LqTn5ZQAY1r9q9w'
p89
I271161
sS'KT9EiMOGpAgFBwVG4GakNg'
p90
I273228
sS'NfxNNSzUUSza3AJTMmUsrA'
p91
I112547
sS'QsCCPWxWqMe-0jSfryhkXg'
p92
I112547
sS'ML1RJdeZ7bbfMrHvJ7m99A'
p93
I267908
sS'gkv2XvXpFgiq4Bb2XK7YmQ'
p94
I267912
sS'ZWH9O_xYFiKqQjuiXxZoRA'
p95
I267908
sS'QfkktmltWkPW4yZ87198LQ'
p96
I274989
sS'q6liXMxYTMYx7evcgz1eQQ'
p97
I273228
sS'hzUOqxpcnYYBgLlrgvjQYQ'
p98
I267908
sS'8rMSbtMFVtEien-2EfFu6w'
p99
I111818
sS'Z9GH9bo8SHKx3oOokhHLyw'
p100
I267912
sS'CoeLG9kcKiJQL3TfuAjQUg'
p101
I271161
sS'Cy9XgM3ZG2jZ1ganvolb6Q'
p102
I215515
sS'IEvFly9bhQv60_coRK5cDg'
p103
I112547
sS'nf-XFT_vCyPveDM6Q51xxA'
p104
I267908
sS'OxIeMVcop5oxBUWANi-1Rw'
p105
I271161
sS'G0lLt7xjXUBhWSoQtexoXg'
p106
I208472
sS'OmpbTu4deR3ByOo7btTTZw'
p107
I271161
sS'GVMx0qWOJIJTuVAGeg71UA'
p108
I276007
sS'CCCu9d1Nl-zY85u2NwlEuQ'
p109
I267926
sS'CgUFVo2ANTRujxYOiY_dmg'
p110
I272124
sS'Pfb6VOIiroqDWOebfgWGPQ'
p111
I267908
sS'SvoJ3Y3uqDfB4iGUaWXh8Q'
p112
I271161
sS'yaTx8l9SrM0qR3Zcdnw5rw'
p113
I267926
sS'T5HYqRADhAL6VPRAacz74Q'
p114
I267908
sS'N-gqIeVDebI3qgwxf1jMcw'
p115
I267908
sS'OT3yVpDrDVITDCIYox8d9A'
p116
I271161
sS'UGmAoMLlmxEamtdv4-KqWg'
p117
I267908
sS'gBcpDl0quCLABsg5OuSFww'
p118
I267912
sS'xkjlpiri9yY2diY9oJVQ3A'
p119
I267908
sS'OJDtbPWAuym1iKawyuHNZg'
p120
I267908
sS'1xRLO1NM8-3soskp2fEgyw'
p121
I210081
sS'OkRzw22eDg45do8i-1jHow'
p122
I267908
sS'ExEEi8U78wN6iFhJsH7Eeg'
p123
I271207
sS'eZFhPqJ64hE6quGj7GyCqw'
p124
I267908
sS'KpJeQaB0ca6k1-Wdduokqw'
p125
I274989
sS'hIe65VALe8rxseYECVj08w'
p126
I267908
sS'hlwaq_gf5Ep7p3-MTnkbpQ'
p127
I267908
sS'91iKybk4E_LSl5vy0F6mkA'
p128
I112547
sS'7Z7IkR_-94AjUuDw0fbI7g'
p129
I267926
sS'yLfYR-PvIzAv9DnEH68Rgw'
p130
I267908
sS'TLjnOhDnazyPJmI8LqU5-g'
p131
I343577
sS'ZCkgKNFAVHYQNam4I_T5Cw'
p132
I270327
sS'HDIrBC_qURu-Hxt0WSF2aA'
p133
I112547
sS'NRS-Snzp3Izblw2OmmlsuQ'
p134
I274959
sS'9JFmuEuUzt8VSUisejFrtg'
p135
I267926
sS'Ta-fY1c_E8qHBBDQGyxPkg'
p136
I267908
sS'VoJ0v3vd_1B3zgq0aL2lYA'
p137
I267955
sS'2SXcJT4yW9EQoEuNI1hmaw'
p138
I215515
sS'HFT3DqcWXrWaxbLFgI1jjg'
p139
I267926
sS'Mng1FUcW-xRSdsDkowQm2Q'
p140
I272734
sS'rrXhjI4YXmWO8GbmX8oGqQ'
p141
I267912
sS'3lr10jxwg-ObDwtCKxEBgA'
p142
I274339
sS'l9j41HD36qSukJ-XOLg5oQ'
p143
I267912
sS'CNvF4BsuFEfC-0Ol4cAD3w'
p144
I343509
sS'c3BCBElZ1C1gIJFQg6Hu1w'
p145
I267926
sS'FucrEEO2laIlAnIZ_n6cTA'
p146
I112547
sS'I3oqfVYgp9_xCMXnGUsmHg'
p147
I273548
sS'B_ZFDnijOwCOHWJnFZZwKw'
p148
I267955
sS'JM0lTQ7sqAKx6J_8jNtY1Q'
p149
I273858
sS'MzMu6VKY_PTsoaOHD8OFLQ'
p150
I111818
sS'SiwN7f0N4bs4ZtPc4yPgiA'
p151
I267912
sS'Q76FbDBBw4Mm3RZ34cpZfg'
p152
I273625
sS'-nfzEVOVvmDSFbxvBsllGQ'
p153
I271161
sS'QiI73966zZ0H6-ojFdbcOw'
p154
I272734
sS'Pxbs4p0gzg_NS8yrrz2rCA'
p155
I267912
sS'PFO7RF1xz4ZBuaq46KsLpA'
p156
I267926
sS'CqhsIZ7TzCfJTrZqg5-gqQ'
p157
I267908
sS'ZjwZIQM4TfFO7T7ck7FtYQ'
p158
I343519
sS'3zgswf_NfBJpeAoWeTkgMA'
p159
I208472
sS'3XzjWWJgJtCxnGkYHHweDQ'
p160
I112547
sS'MCFxbw9hQYejyvg59T44TA'
p161
I275948
sS'v4iA8kusUrB19y2QNOiUbw'
p162
I112547
sS'T-FM14EE1tt-94eONQEaVA'
p163
I267908
sS'MLD-FXAHLbdiHOcyeoW-Fg'
p164
I272239
sS'64Ei_ONwHVimtoyIQTtDzw'
p165
I112547
sS'U5nmfiCp7cg8iU7xtksEWw'
p166
I267955
sS'pFgSH_glNsCfr-QtI89hrw'
p167
I267926
sS'it7e85D0cwN2W2M1BVKHUA'
p168
I267908
sS'BtIDzuUOqI0h6VYy4HhUOQ'
p169
I267908
sS'0FK6AbpZrQ8VV6Cy8FR20w'
p170
I267955
sS'cvb__rYMkj4BMhC3p_FB3Q'
p171
I267908
sS'cL9fjZbDVbyDw7YyJbJ36Q'
p172
I267908
sS'9ryGi1IxglgxuZEmfDQfAg'
p173
I267908
sS'mgllPJA6NQXlJurFWAkqQg'
p174
I267908
sS'5WeccFfcgqpuHJiWegAclw'
p175
I274845
sS'6jsv1cp0Gd26X0BiE2tmTw'
p176
I272734
sS'TLrX4FECQDFz-E45TI_9ow'
p177
I273727
sS'y3NuPrPrv9OJi7L0RugtXg'
p178
I274959
sS'rUQfZOengMpXFkLvJrNJ3g'
p179
I215515
sS'vE13WsNeZSCELptN9bLidg'
p180
I267908
sS'eLWSObx0PZejzQApdG7eOw'
p181
I267908
sS'jm2VltGSjXCX6Da27Y-Ndw'
p182
I275121
sS'bAnFMk-UoNjyVYUj0sJT0w'
p183
I271208
sS'VpW40mznMS43CqdbelX2wA'
p184
I267908
sS'1U__JyhW9eiZ2z4djki1WA'
p185
I272734
sS'y-uHaMLLWQydSyWJawLIUw'
p186
I267908
sS'BJo_AOZXaHYXXcuTLRKfpA'
p187
I267908
sS'5qX63SmldFUG45qxAj-KKA'
p188
I112547
sS'WxfedycTcbQO_GuXHo9Ypw'
p189
I343510
sS'hlME5-P2CudNDCUSIX2cxQ'
p190
I275812
sS'PxP19Rb88OQKiSMl2oWNsg'
p191
I271161
sS'UzbI1Da7X23bDLwPluj5Qg'
p192
I273548
sS'JZJqJadk9pSoCGT7VTwBvg'
p193
I267926
sS'O6fEzyH0fRP7r8IbSnCgoA'
p194
I273548
sS'XWLtYPhCpHht5Zn52zp3-Q'
p195
I214645
sS'_CFgU43jk6pX1cm_Nc1vHw'
p196
I273505
sS'AzW6M1E6KcrTDpQ0DkRt9A'
p197
I273505
sS'5EyT-ZbhJR6LwtVaPyE3bg'
p198
I272734
sS'qIhBNeE64skjowRs6TTwJA'
p199
I267908
sS'2unQHR9uaRxk3dsW6f3MGA'
p200
I267908
sS'3LUpNAPfrbG3jOQgFGfquQ'
p201
I273548
sS'auorqdHiATGZHVd-sd79ZQ'
p202
I272734
sS'GGhyhajTNKm5yTxtAoaxIw'
p203
I267908
sS'oQq14GDCo2lb9E0NB2LRhw'
p204
I267908
sS'HLQUH1VAw4KbSV-IhxOPEw'
p205
I267908
sS'd9YdjDy3Ae14nBNPjp11xQ'
p206
I270312
sS'1E53rS8afK2jiLod8Jwy7A'
p207
I271161
sS'dvRLvL3naAkkQtlTz0iI-Q'
p208
I274743
sS'Q1Dt-ARdcGIynClRpDzvZw'
p209
I267908
sS'2ACllAGN__ceWI3VS6vDSQ'
p210
I267926
sS'CAD0tKIttOTTgT7TMJa-lQ'
p211
I267912
sS'kIvIqHvvFOc6aCutFYIvNg'
p212
I267908
sS'fB7XYJYrTtchlTmzSQVMbQ'
p213
I271199
sS'HtI_uDwZ-obk--VW4JjWHw'
p214
I267955
sS'XidaILPcJxVj6jcujLYoYw'
p215
I267955
sS'0NoPKPBULjhsaz62VaUcgw'
p216
I267908
sS'mRvgVHAOw0oIL3lq5vX4fA'
p217
I267908
sS'K4M0nw52FaBNWg2ujNluyw'
p218
I275811
sS'bbfdJ1dkwWNww1m_SfyDnQ'
p219
I215515
sS'S8R5c7-plWe3NtmijYAJvg'
p220
I267908
sS'G6Llvz3Wi83uWX-wueLMSg'
p221
I112547
sS'qLB7RxGO7ztdtEB53G3qxQ'
p222
I274083
sS'H8_d-SvwBz-Sd_ZTK7Kucw'
p223
I267908
sS'OkXpdUozVS3vjSRtCoSIvw'
p224
I267926
sS'4rcOm0NnQkBanyS5g7TSNg'
p225
I267908
sS'2kz1P9SlJNAndRkXk4bCDA'
p226
I274148
sS'Y3a3RkR97J_ReiKgiMXeJg'
p227
I267955
sS'2Kp4M_Xj554O-KWaNbtpUQ'
p228
I267908
sS'4XJ8gO6cbS6PuZ9dzPsrBg'
p229
I112547
sS'EvkHHcaECY_SpWVKlhZ5Iw'
p230
I267926
sS'TyIsuojeKcTb4Acfg7xqew'
p231
I271169
sS'uAcInAFASuHmZjZ3cDsgLQ'
p232
I112547
sS'Jp8Tz0_OK3T71eYPmC2qww'
p233
I267908
sS'ubYzyCbtpuEiZxd0q7DivQ'
p234
I112547
sS't15LDNaHFpu-bAEJSdoV-g'
p235
I273806
sS'0qiGyzxHr5wDDJLXbSRYAA'
p236
I111818
sS'LCnxDGs7sx3IhxcW2wisZw'
p237
I267926
sS'U_RvpPJNn24oWJo07x2j7w'
p238
I270315
sS'0Lsd35rHY6UtPFHjjxJ1LA'
p239
I271161
sS'TJS9ow91yySX4Gt35hQc1w'
p240
I343629
sS'Vu8od1U-h5qqwj3Jf_Hnzg'
p241
I267908
sS'hcjvUppdf0lvYnIyjYOi3g'
p242
I274083
sS'tvXTHj9V5sgRoeVJW_FiTg'
p243
I215515
sS'dHDi4wCcjsOR6vcZ8oOIoA'
p244
I216117
sS'vgXE1I7c9ElcfYyZfQiN1Q'
p245
I208472
sS'uuv2IsWkbW7zdyYfWbU_Mw'
p246
I267908
sS'UAnuqYY2EoGSh4vC8BByyw'
p247
I267908
sS'L3dTz2TQIyov5NbPdJLkSA'
p248
I343509
sS'_naNO-mZQjTav4iLf5TFmA'
p249
I274546
sS'GF95bWp-19I5YbNtr9VluQ'
p250
I267912
sS'sB0yyxeBcVhRxGd-lwR4yg'
p251
I270315
sS'CE6TWiZ1hraCilyXIfxu4w'
p252
I276598
sS'oYo5e7TUAYGRdx_0rjohww'
p253
I273625
sS'VkqKyq09rDYMhFk5nElWWA'
p254
I208967
sS'WZZK_F66iPuLp9jeFCeKDA'
p255
I267912
sS'iDoigI3605ixHl_qHly3Tg'
p256
I267908
sS'7SoGPn8dvce7A1aHdBOGLA'
p257
I267908
sS'Rjx8GcWuCzfVsKC5iPIcQA'
p258
I343631
sS'3XD7VYs5NDJeMKKKVlkEgQ'
p259
I267919
sS'd4JotJ_TGNCm9y-TB4e86Q'
p260
I343526
sS'SDwYQ6eSu1htn8vHWv128g'
p261
I267908
sS'wXkcGMmtsDl_FTr1ac-n_w'
p262
I275812
sS'uxdvqXJzwaIpBLak7OAwGg'
p263
I112547
sS'MINVLVF0FWCmL8rKsx1txw'
p264
I267908
sS'yJr24Yy1K6bt2G9fX3_zPA'
p265
I267908
sS'Yhbsyq_n4J3vLhw9WkXwAw'
p266
I267955
sS'QD-tOlwW0A06L-e0OUuEMA'
p267
I215515
sS'W7-Ybhe6JWJFXjcbmgvdyA'
p268
I343637
sS'jtqJ_dFZ-dxiOSRdq-hokA'
p269
I267908
sS'kAid56AY_laxGYslMdsYJw'
p270
I273727
sS'CC9ttbNktyxl9tRHkUG30w'
p271
I270327
sS'EUQjmH6mlCfS7tvUvviVrA'
p272
I275811
sS'HNXcjXTz_Ogsdpm0Kikhrg'
p273
I267908
sS'ae4_Zk-GH_WlbxtbLpL9MQ'
p274
I112547
sS'zpXvtQ-GB_IMKwHLnJa4Jg'
p275
I276610
sS'YbqNbrnOEk2T0qIBbTivuQ'
p276
I276598
sS'tuR6sBN9IwyLEg6KiuEXTQ'
p277
I275811
sS'Vvh2Hd4SsZjEEfKLNKAEWw'
p278
I267926
sS'kel3Wb4pLYL0l2_QujLOWg'
p279
I208472
sS'_GS1R0LTwr6h8rMWY_8U9Q'
p280
I267908
sS'JxgoluY8hnC34cys_f80xA'
p281
I267908
sS'gOgEPdwS-oJV0XPlXErNRg'
p282
I267955
sS'rM-yscH8mBLYvpWnmvuPMw'
p283
I215515
sS'pLIEBQRP9hDG9T2OWDX04w'
p284
I275454
sS'NdT5erZcy7s2RPam8Os5kQ'
p285
I111818
sS'KBtErshxH4WvN1h9fu4k7Q'
p286
I274546
sS'J011r7mUV1QhgLJ7GkrtMw'
p287
I216117
sS'cVu1nk-5IHmSwYBBBbP4rQ'
p288
I267955
sS'4zr5_OOjwTdOEE7d_181RA'
p289
I274959
sS'e5xJGurgQboeP5AdX29Bxg'
p290
I275811
sS'C4_VnxikagdjSbNQiblzYw'
p291
I267908
sS'Tk2dSL0TwQeI_zNJmb442A'
p292
I267908
sS'5W-E4Mj4eO5xfkZJ6zn2Cg'
p293
I112547
sS'20rvtW6moryYCD_2iogQ8w'
p294
I267926
sS'yp4Erq_kG7Zi6Bssc07Oxg'
p295
I215515
sS'xI_iG7X6BcdLtj57bkUOqQ'
p296
I267908
sS'4ocBzpAkIrqXvz1Q6Hysjg'
p297
I111818
sS'qbu5WjBSQyj8yCk2ENc0BA'
p298
I343537
sS'XIcmcmjX87v59DXh0iQW8g'
p299
I267908
sS'2u8338wbOjA2_EKvQHwk8Q'
p300
I267908
sS'OZsTJTWehiVTimQjcZ42aA'
p301
I267908
sS'EzezmygHbzPCFTyzh_ZBWA'
p302
I112547
sS'Yn4cNkvCw6PhM6KISEGpAg'
p303
I273357
sS'cl5gr18l4R00NnQbVtgJ5Q'
p304
I267908
sS'ypj60fU8wsiOkMjxayBgGg'
p305
I267926
sS'uj4pF9di6jU2YTalRsYwww'
p306
I267908
sS'AUDuCSWYzzRP3H2w7TxtuQ'
p307
I274959
sS'QEgP-kDuXD2fQJHBm3HoFw'
p308
I267908
sS'WWlNzfSllSQhr4whj0W_ng'
p309
I210081
sS'Bvj-UP9khEzuwDIW7eJNOg'
p310
I274959
sS'-jIzL2DwXx1sNwIMoX2JOA'
p311
I112547
sS'rGHktXbee4CErLsMrPqbrA'
p312
I111818
sS'TvHtup0F_Ilkc9Nunc7TNw'
p313
I275112
sS'Ytiiyv0BtcURxRCa4WbP1g'
p314
I270327
sS'RZuB9AOCNB7IzC2BGn7jRw'
p315
I267908
sS'5tW2BXvINlk5MmiKelcByQ'
p316
I343524
sS'la1oCfEWDvIG-9IzADLNdg'
p317
I273625
sS'oj8bMz76cKXQClpFTFNW9w'
p318
I271169
sS'vFJmFFfPVhHkC3bWOeZnNA'
p319
I112547
sS'rwT9wCyXNATA36yqcb4JSg'
p320
I267955
sS'dlqQuSgAjoP_S6bqFrRsvA'
p321
I112547
sS'FFrSjtPRysuonUDfxn6DEg'
p322
I267908
sS'oEiREikj9amjOQaMrY6qrQ'
p323
I274743
sS'tb24fvNJfHhyKEXkKn12Xw'
p324
I267912
sS'7sNevRClzE8rf86fdSPqhQ'
p325
I112547
sS'stVENgLTS3MiMhyeJ7XQZg'
p326
I267908
sS'7_4OqT_IQbpXlao-4BEyMQ'
p327
I273505
sS'gStuDV22kE0EJlse2iQGTw'
p328
I267908
sS'pu00WFyRdXnHir87i1wvUQ'
p329
I267955
sS'etErOxgYf_AZHfRwmbIkFA'
p330
I272954
sS'TwwD5FQSe0vk1Ecp89HjEw'
p331
I273625
sS'qABKRj1ggJmtvrL9FMFtuA'
p332
I271220
sS'QAe9UHKsxPdXQovBpaznMQ'
p333
I267926
sS'bl9slmDGQ28-DwhzoKjdlQ'
p334
I267912
sS'n3jucIUCSjIXrKU-ykIb0w'
p335
I184371
sS'GrGHVKec258eN1_gtJwS1w'
p336
I267908
sS'17Zp0inFGLaQsxMBapdh4Q'
p337
I215515
sS'MSnAOSajkFXLojJWgRjMCg'
p338
I267955
sS'T9p5rNXbxOYYIbdUOznXyQ'
p339
I267908
sS'AmJd3TNje_DmkxhCtg55IQ'
p340
I267908
sS'k1A8pNspBPinGDivxkuDSA'
p341
I271199
sS'L19_1cG2ALVjdBQ456h26A'
p342
I267926
sS'83_p9vIqOq1TUIf3_GD7bA'
p343
I273999
sS'LN3OCT1xOedbf65xKzFSNw'
p344
I208472
sS'fhLb0v5NBj93D7PLQpFXfQ'
p345
I267908
sS'3SWhDtktjadfbj7jsKoU8A'
p346
I267908
sS'f0Sz4efqcGDO45fNyIuD3w'
p347
I208110
sS'cesIA0RiuNkzKBA9zhT5QQ'
p348
I270317
sS'TtgqkVKV47I_RuVYl-RNJw'
p349
I273785
sS'AVlnz8OVKacySY9hWNWFUw'
p350
I272734
sS'L6f65Mpp5kMBjUnUY6lQ5g'
p351
I267908
sS'nreEQ3b-cSZgT0S5oxj7yw'
p352
I267908
sS'OreGIQraIaINz_43wuoYew'
p353
I267908
sS'3kl25XEmET3SM-6jIa9-MQ'
p354
I271161
sS'hLS72rXAqPE1RmXmLiMVgw'
p355
I112547
sS'EFz6I-rPPyeNgH0xbevMWQ'
p356
I111818
sS'TIPebazlAGJsp8zAwhNkcw'
p357
I215515
sS'6Hbeg-L0WxSDk90upmNJZQ'
p358
I276598
sS'NocsXLtDpCusfRMy0xXlqg'
p359
I275309
sS'lFs2xPJ6Nngi6DnHfsX4qA'
p360
I267926
sS'M-MFa0YErVBbFW2IJhGJmw'
p361
I267926
sS'KJx7nLuptheVFOktp-wvfg'
p362
I273505
sS'6-k0Mv_4ZzWzVym_kjogZQ'
p363
I267926
sS'QXpD1bSjcp-nuXm9MHMoKA'
p364
I343577
sS'hjeStj9CW_4bIa0sP9Pb-A'
p365
I267908
sS'lVB0HB2PxC9OTtMcz0wagA'
p366
I216117
sS'fpL1qcZ6qbWzC79WU0E-Ug'
p367
I267912
sS'cVxig7AVvbWkHh9ZyOQyfA'
p368
I267908
sS'6AnorAMPkTdSDbUkOoV1Rw'
p369
I216452
sS'En2GuQV7FoOGHhXX5SMEBg'
p370
I111818
sS'1NSbVxzHYnCzd_VRad_0Lw'
p371
I112547
sS'imM-x_nAxVtYGVFJJ4FS3Q'
p372
I271217
sS'rpq5pRzrVPXt9wKm17LV7Q'
p373
I343227
sS'mgxDoBrn2Yhy6x_4naFS8g'
p374
I216117
sS'9XKIFRBT-UTglX3wBGPAAA'
p375
I273505
sS'0sSHuXYIuJ5iy8eSCAq4gg'
p376
I215515
sS'GvwDppcJLm9lso9iS2hSIw'
p377
I267908
sS'NVqLUZ7Vb9B_0RJm_BS64g'
p378
I267908
sS'hBAcj7X5JHeX2hvmptwH-w'
p379
I271169
sS'v0ZLHYMsI1T6uHhkkQl43Q'
p380
I272734
sS'kCFGPmD5fP8YsmSTPjaCyw'
p381
I274148
sS'YXfe8-7uKfl0gTNS-OKLPg'
p382
I267908
sS'gztTQsgq6FJwIoV4P4RNIw'
p383
I267908
sS'AehuBK7aJZM76mAmQ7KL2w'
p384
I271161
sS'MEraJIKYztC7IOzYwMe86g'
p385
I272734
sS'yjS7VP4u2b2rwDwCR02iDw'
p386
I267908
sS'aApHpyUbnqBJmL_3X6UFOA'
p387
I267908
sS'8o7qTYEYrTT3_7c3ObqeLQ'
p388
I267908
sS'OhwF2JDqlYMZl5Rp3WRBog'
p389
I271161
sS'KZv3d_-bt9QC5mv5MEYTbg'
p390
I267908
sS'VsgKeTyebDemed6V2N28GQ'
p391
I112547
sS'R-ff6qTsHb6HC7wQ2Wl5bg'
p392
I274989
sS'vmj-2OhFiKfNHfY-dn0OaA'
p393
I112547
sS'1PSnPPFVfp03iPfJRPWWQw'
p394
I275811
sS'Y293fHh5SZ0_9BZm4M6BCg'
p395
I267912
sS'SI3pSSDeGcuY2PyJ0BII5A'
p396
I272734
sS'j8nyAaN_w5t6wYv-ni23sg'
p397
I267912
sS'nrb_PRgJB-ZOVLD07fikJQ'
p398
I267908
sS'1x-dFw3nMYMVmnIYwea5gA'
p399
I267912
sS'Z1bZfwSGEnXtycM4ZARt7w'
p400
I274743
sS'lNE3gOMb724YPlZAA8WlXQ'
p401
I343518
sS'b-IWZuVd3f0GcbtetwG5WA'
p402
I267908
sS'sBgB9OLYOOewtw2RdHitzQ'
p403
I267908
sS'FOQ2xb539Hh6Xftznwy1kg'
p404
I111818
sS'NezYty89H0PtLr76V17Z-Q'
p405
I271161
sS'_SOTev0R-vDu6X_uR5eyfA'
p406
I111818
sS'o2p8nFkKcIS3VsfbORBIZw'
p407
I267908
sS'JeZRokQJYf6sV_TF7lm9_Q'
p408
I273625
sS'1dAObAOdX-yRrvx2MxabjA'
p409
I267926
sS'u_F86yMy2iOVQXhLJoxj2A'
p410
I112547
sS'2i6lkGef2_GMudi6SbRX2w'
p411
I215515
sS'-TTcDHwNAIeJmCyWN_AtBA'
p412
I273705
sS'TuUqEn9Q7LyuaT03LJ4ArQ'
p413
I273625
sS'SWUIZ5OdEihdwHMaQWptFA'
p414
I276277
sS'e8kqqWU9247Nn5VAF5sDkQ'
p415
I273727
sS'EP2qf9JiEnuD5brPmrrROA'
p416
I112547
sS'JN2qXIuDXnV2d8WnSqd28A'
p417
I272734
sS'MfqEPdcw0UYVdDoV3p77tQ'
p418
I267908
sS'rJ7HH85lo0wTNr5BiYGQ4Q'
p419
I267908
sS'tC_T3DykMOlLV4p7iiRDWw'
p420
I267908
sS'Tr3EsurgHqGPTXwAfjZ04Q'
p421
I267908
sS'RoErsFPM0A-1SCqD-FRV_Q'
p422
I267908
sS'hHUxynhRliO0rdjgPYesOw'
p423
I271161
sS'Vu-c7qfc77p0VMMJ00hzeA'
p424
I267926
sS'0Ov1O2Gd0dwjkSaj5NJbhg'
p425
I271165
sS'6gVX9y8rhF5WosQDb6yQXw'
p426
I267908
sS'Yr3PHmZwZYqn9YIZQ0ekWw'
p427
I112547
sS'qIMm-u4Y-0E5Ew6SXzhWbQ'
p428
I274743
sS'EwuvZCcVHkICgTbqCEjikA'
p429
I273505
sS'2ZQ3EzJVjPkVCk4HLwKIag'
p430
I275121
sS'UxMnY3Dxafucv5cXHyfBSA'
p431
I267908
sS'-Mi86BZenY9IROFUdVy8bA'
p432
I267908
sS'dJ7Pt3QUQobwhP9tiO67eQ'
p433
I270327
sS'3UMcsN9IjoeV8JZvC4apag'
p434
I272734
sS'j7kgLc4Uys_sb-H7_Velcg'
p435
I271161
sS'KTy6UinwPHCU3j_GpE_pGg'
p436
I275812
sS'IPW-CwmnZaNsG5GnW2EqOg'
p437
I267908
sS'hWYquDqNMXGMUcjkt71Wdw'
p438
I275779
sS'8Lf_SZFuVhOe9rrAgC_pAQ'
p439
I267908
sS'-_SZy-tV0oNRiFgMStMdyA'
p440
I274959
sS'5D_je4wNPhFuT577lihYRw'
p441
I274617
sS'M42cmx09Crui_rKeUo7PdQ'
p442
I267908
sS'Xo9Im4LmIhQrzJcO4R3ZbA'
p443
I267912
sS'Lt9o2RmacVY2L-IWLA8uTg'
p444
I273505
sS'GRrvJchtxskNDsGYUPPzzg'
p445
I215515
sS'2YNzI4QCGQtDqc73YcqBFg'
p446
I272734
sS'DsxLIr-b6WlDn9YNsVBu_A'
p447
I208472
sS'eT-7JjVWhRnkeY2UwXwUMw'
p448
I267926
sS'_WyjHcQB24zyMXrZ7fjEXA'
p449
I267926
sS'iSr13ZE7NKFvwfhbMzgK3g'
p450
I267908
sS'vKHZVUwW1ewZju0PgeBbmg'
p451
I275811
sS'qZCqRdTKqcb_6l4Yqz4Fiw'
p452
I112547
sS'g4jHGmS46NHnb7xp-YPUKg'
p453
I208110
sS'yExYqENb4F6qH6kJxTOaSQ'
p454
I267912
sS'edjCywtqffQ8__vM7POZbw'
p455
I267908
sS'72N6TdH5MdUWE2YhYRbyxw'
p456
I267926
sS'Nnk1gNKSi_12ziNuK2llxA'
p457
I215515
sS'adHLd0nHGabLkf-58VVTEA'
p458
I111818
sS'aozcOaCMwOHG8s-lbZ6_gA'
p459
I111818
sS'BiVbNsG2c0I32powZF4ITQ'
p460
I271161
sS'HoHRR9pdHehYp2W9iDK6kg'
p461
I270315
sS'J2AiPQnKWBxBwc4MMkbH8w'
p462
I272243
sS'iYlGqyRNH5UYQABKsDuuDg'
p463
I273505
sS'OUJmtRxNkV0WT8rrr-qmRA'
p464
I267912
sS'S4TWo9X6b3gU6uucj4JN3g'
p465
I343518
sS'5XIvwfbIa-vuFEkkeCQ6kQ'
p466
I267912
sS'h2ewvzx8enIwYhNbtIpcZw'
p467
I267908
sS'SZvYxcvYYVRue9MXcEDjsA'
p468
I267926
sS'Dltf_Wkf_gK9k9IHQAa48w'
p469
I273505
sS'q9B1h5eGBvHjQLF10puUkQ'
p470
I267926
sS'Z9ogOCIkHasuKVELa8mQ_w'
p471
I267955
sS'50SekjFjmwgN-lGXDu48qw'
p472
I343537
sS'leFRt1SBYL4ZHalLLTlbsQ'
p473
I267926
sS'zHdt_KW2QqgJJ9bLmtShdQ'
p474
I343518
sS'ozWBsvbeM2LSPsRDsYKr1Q'
p475
I267908
sS'_yfprBETaYgySkKyl8ZWMQ'
p476
I267912
sS'XggHmNafIhsrmYQsDMFWfg'
p477
I267908
sS'zOEKMp69QWrXeyVH1Je9DA'
p478
I271169
sS'GNKcvMI0RyVQyEA4jNQXjQ'
p479
I275811
sS'uaAMGh8gMoJD4nLFzNsM-A'
p480
I267912
sS'xdbAfuSqgqnuoPvLzKjzww'
p481
I215515
sS'oo30Xr3fcFmIoD-sQOrZnA'
p482
I274959
sS'Ryq600aoE3h8_qRQGIed9A'
p483
I272087
sS'UUs667cl2g2SjmWcOYgCVw'
p484
I275811
sS'Yb2pNCxYR32XKmpirqJqeQ'
p485
I111818
sS'ITyAEjIw9ekv0wXpGHQF1Q'
p486
I267908
sS'ZDlA4SPGz-fs_mjE6wVWnQ'
p487
I267908
sS'XLqnjlLYt0_q_NG7l_BpMA'
p488
I267908
sS'NLMGmL27O1H-Vr-HnYQJ1Q'
p489
I267908
sS'5eplbhUFhY4_uL7tV2VxAA'
p490
I267908
sS'G9Dmb8frsHvAjysc5QSpBw'
p491
I267908
sS'ut-kla-EA23nJOij_dcL0Q'
p492
I267908
sS'Q9j-sZXJI5cqpNo4vJajWA'
p493
I273505
sS'DvwlhTH-RJUa_Bf1Qlz9lw'
p494
I112547
sS'buHdrzRiFpgYg9u5SbOu3A'
p495
I272894
sS'C65dADtWHaAU_nJV2dcwbQ'
p496
I267912
sS'5V1K5DRpGrObijbtCuPbcg'
p497
I271208
sS'psMQBi2uQVN7c-Sw0xjNMw'
p498
I267908
sS'6r3IKtsmMexNfsZK6bxvLQ'
p499
I267955
sS'fOxHbgmFwzIAC6cJaFbctQ'
p500
I267908
sS'tK91rSBc8SWa3XEQwe8D4A'
p501
I267912
sS'ZPkomfeRH2pflacWf7U3-A'
p502
I267908
sS'c0RSs2KYK5Y-ZlSrNq9LyA'
p503
I267908
sS'UWtpIca-ub74r6Lgwfu0Og'
p504
I275812
sS'dSQh1Hx2BiSrYog4ad740A'
p505
I267926
sS'1-PQ4g60PtEKJngOV6MMsA'
p506
I111818
sS'nP7W45S__SYhJWhjgiDgkw'
p507
I215515
sS'5kRug3bEienrpovtPRVVwg'
p508
I267908
sS'Xc2eSyPPyx71C8cHIndQpA'
p509
I275811
sS'PhIGoo9g6GBrqgH_6yZXXQ'
p510
I273806
sS'8BUJXN2fU15kclyTA3KhAw'
p511
I216117
sS'6IEwKfhfTEK54cqXpcU3HA'
p512
I112547
sS'ofQCymLeEmWpTQvx3YYwPg'
p513
I267919
sS'HLWtNcf3l-wKb6v9duteMQ'
p514
I272243
sS'NDEzqbWAKOxcZYYVJ0o7kQ'
p515
I111818
sS'OceUtK4lKAziifRdkRh4Dg'
p516
I267926
sS'f_leeIRar8uNCkk5sAmHRQ'
p517
I112547
sS'SjsguOTm7kQ_B3QcfHH-3A'
p518
I273505
sS'ZN9aiuiCPAXWHmV_hB3KXw'
p519
I267955
sS'FiP9q_YD5vgxu_Sflo5oZw'
p520
I343535
sS'KxJ5DRcSo83N-GW4f_gMQQ'
p521
I275811
sS'XvyKrYbc0dvih-P8dATEMA'
p522
I343637
sS'J-Wet_eJxuL53NaWx7l1PQ'
p523
I267908
sS'lwgBIboXZ4j9uuZthAvTEw'
p524
I267908
sS'kWhPVxZv7C2htB-Z8az_AQ'
p525
I267908
sS'AyPmMe8GW6J26NvT_oI88Q'
p526
I267908
sS'mE52ELf36a9fa5PdXLu9Ow'
p527
I267908
sS'USdRzNk14UdjZWFgBJb0wA'
p528
I270315
sS'T03ew3k5i1dv-422E-dXdA'
p529
I267908
sS't5l-H2KdY4MQgLDMENz9WQ'
p530
I270315
sS'qz4ZOcv-840UjfCEYI4qZg'
p531
I267908
sS'229b4Pen_-XsyZ3Y2ktxGA'
p532
I272232
sS'ET9VpUk1UgjMN5DJRV0yOw'
p533
I267908
sS'zHpOiNFw64XqwmFZp4Yjiw'
p534
I267908
sS'JtViWM5LYyQ22uq2DYqt6A'
p535
I208472
sS'Nql_cQ0n8ErJzl4qFGJfcQ'
p536
I273505
sS'plSOOdrHxoRV_tD7uGkSoA'
p537
I267926
sS'XstmBqw2N9FahxXzlout4Q'
p538
I267926
sS'cBoOvUP2FZxLNG0yh3bZVA'
p539
I267955
sS'FtjvnLhh51ZBYEpKAARaFQ'
p540
I271199
sS'tJS-JB23Z5kpKpoxsPcYEw'
p541
I267908
sS'oU38GVk3Kmw7_LOVLSqqwA'
p542
I274959
sS'xP-6TN10JA_7C6-V1-JOEQ'
p543
I276007
sS'Y9V4EebKsaBmvKPlxXVheA'
p544
I112547
sS'o4JSQ3Cw30TtshYMBnKWSw'
p545
I111818
sS'bsEJKduEgoBhNNNHO4ZHEw'
p546
I267908
sS'nefBMCGgMPvOnASoyO_X1A'
p547
I111818
sS'KIbFaBrZDX7rrYJInkv5Kg'
p548
I267926
sS'oPPecxrC9rdgFxeufagGSA'
p549
I272734
sS'vuMGIdYCClhkP9cFYFyfLQ'
p550
I112547
sS'oCA2OZcd_Jo_ggVmUx3WVw'
p551
I267912
sS'CtB6YHQPIHnuCN4I2dyyoA'
p552
I273625
sS'n2MTry6EWZKwDxxm9-povQ'
p553
I273625
sS'B1V_L06BQGf6KaggD3JQbA'
p554
I184371
sS'sUxPe5A2NvEHs12UokMyBQ'
p555
I272226
sS'm0lYHy3TdSXc7FvOSf6ihA'
p556
I267912
sS'WVwnnx8Cut5Wih2KYtXKcQ'
p557
I272734
sS'bVRoCoXu2jIyqbZRT_isWw'
p558
I267908
sS'bnx_25t7i-2_QAW8lRxC4w'
p559
I267908
sS'R10n8BjvPvQtgJh4DcZUIg'
p560
I267908
sS'SgjcjIxsAlVkcrtLaLxtTg'
p561
I275811
sS'3pXGiCB0Db8ALF5-kLXrmA'
p562
I274078
sS'kvxrjOmicwb2njvXOJsZRw'
p563
I267955
sS'5hQNNmK8VdXFCO_GoD6X8w'
p564
I273548
sS'-H-owwINLldu_fVY8TdmRw'
p565
I273625
sS'Cly5hnQ6VxCllCdhkBlBTA'
p566
I112547
sS'gQjTs4BDNYSu9oJhkEsssw'
p567
I267908
sS'_AaKbaHMU_2EwqmInkZ0zw'
p568
I274148
sS'RbUCjIvGtgPY_cT6MJYxmQ'
p569
I273548
sS'-LJy1ncTD47-d-kTWyGvRw'
p570
I275811
sS'zZTeY4HF5rxkZym_gFEnOw'
p571
I274959
sS'78ODNJ0EANVSsbgrwhl3mw'
p572
I267926
sS'2I666dqzs1XB6xigIKa9bA'
p573
I267912
sS'3DMvGD8ZmlMQmhwV66hdSA'
p574
I267908
sS'uXuiI-Y998JChGn-ebcSdw'
p575
I215515
sS'4glD2-evDFddHjQaEVpCPQ'
p576
I275121
sS'3Zsjlum5kl5N5KV712aTMQ'
p577
I267955
sS'mDaplgVVdXUNZ1cHD-NtYg'
p578
I267908
sS'qxaoJ2cd7-cvEPTmSgBAyA'
p579
I270312
sS'K4yExVqUtW2sRE4grXU8Zw'
p580
I267926
sS'R72PRg4ZKOjstjUiTCUWTw'
p581
I267926
sS'MNMThMYpXa_UXZHQEEYS1g'
p582
I112547
sS'QwUHifLjoc5hoxa74jpwGQ'
p583
I272232
sS'oX6KamASYXnMIe5kpVhezw'
p584
I343518
sS'Ak6ThDexfSFwoajgOpio8g'
p585
I273727
sS'3m64jZztOV8UnKf0RBGUQA'
p586
I272041
sS'lW8-lFQ-mwG-Wl6iUKoT6g'
p587
I267912
sS'q0aEHYyFzuiazt8qk_2S5A'
p588
I267908
sS'Heon0PS3J4RGmMa-VflCuA'
p589
I273505
sS'5mz8CUNzBGOhrkvRqcWOzA'
p590
I267908
sS'85My_HZMg1iyyzOFLGS1bQ'
p591
I275121
sS'dxCqGkhtXq-9fYEsX7Mf6Q'
p592
I208472
sS'yYyWwqPiLJO7eWRt0g_PBg'
p593
I215515
sS'MU3i2uEyUBntebU6pEyMbw'
p594
I267908
sS'u0zjW7rluJgUeQTnaZnkJQ'
p595
I267908
sS'MdDCaLarh1aWU9NfB6SQjA'
p596
I267908
sS'j1ezGpPI4vmqBLwyyLIsNA'
p597
I343577
sS'smHuQzYNOkN2CHDjLG8KBA'
p598
I343577
sS'YgPWKeEOgAy4IyEMRxrwdQ'
p599
I215515
sS'dr3FmOSZ_Iy2WyPnS5ABOA'
p600
I112547
sS'pi3mbzLBFd8D5JNxmpWVxw'
p601
I270312
sS'F-e-sWfVd3eCYll3BP1QFA'
p602
I275811
sS'nE7GX1tMsGK4y7FjpPRmbA'
p603
I272198
sS'7FZ9597M9LhHXGbBD-0VFg'
p604
I275391
sS'pmvTuJJ-4A4XggDWYK-8WQ'
p605
I208472
sS'4Ns09iF8MhZD0PmX4UdZgQ'
p606
I111818
sS'7p0OI2Ld46-EzJkRHGQEJQ'
p607
I267908
sS'dL0A8XofOhRncXXkKVu0jg'
p608
I112547
sS'J1KRES4_CuJFGV9gX5Wasw'
p609
I274959
sS'dWVFS5Jiu6Ee7vOLc2T6-w'
p610
I208709
sS'HIiVx2mseVWKtx8TKfWC_A'
p611
I267908
sS'_ODHYjCmrb3W9hIGJI1uaA'
p612
I267908
sS'h5zKLqoNlMozvxdkRzSiYQ'
p613
I271161
sS'F-ykHfGY9lWr12OJ_Ofy7A'
p614
I267908
sS'7uoxZ35biPZfl8m5w2_XRA'
p615
I272087
sS'rlaY7svfLnNzgEYKEOhN-A'
p616
I112547
sS'ITcg0ABneVKWREfzx7v7Og'
p617
I112547
sS'VpSiOW1PapVmZyyRBK_GBQ'
p618
I267908
sS'QdSGdvZATzejDkSs435Rdw'
p619
I272226
sS'n4N4NyNS78JUvamWttTxJw'
p620
I267908
sS'euobxaIRfHlzjQakRY7G-A'
p621
I267908
sS'c9tSg7VvXbh2EifsOlKAjg'
p622
I273548
sS'gpCtDCSXIoQx70cq9itfNA'
p623
I273505
sS'11TvD4sCfA8GEqLDANpbSQ'
p624
I267908
sS'4YY3AwkTbKQ2tJLzpYFD7w'
p625
I267908
sS'fAJvlRFhdYJlMyG-CA4ErQ'
p626
I267926
sS'1gKBusJMk66ypwEKF0vOAA'
p627
I273776
sS'n7dkpRLUl7C6zLRRXk_BDg'
p628
I112547
sS'xfXGTr2gLqucMDu6fVymTw'
p629
I267926
sS'HRK09g-oqBZ2iFoAqI4HPw'
p630
I273228
sS'v-s4PQagPlKKL2d-ncQF4Q'
p631
I273960
sS'vCc7G6wSBIf8kuGOFH6FqQ'
p632
I267908
sS'c9D0yUos-jGOZaUv7SgCFw'
p633
I273625
sS'cgNIBHS2mLdbTRiodAT6EQ'
p634
I267912
sS'iEUYQsc1URn6Q9naopQGWg'
p635
I267912
sS'JD1uVun5FEF_Ih2PnHCbuA'
p636
I343526
sS'OypZxwm-jS9QfUwgBmzeyw'
p637
I267908
sS'sMD2HPNh7m0hgCxHDzGTzQ'
p638
I267908
sS'SaStkl2wAsvwzT1AjjG4tQ'
p639
I267908
sS'yrBo3c3OTKVO4H1ttBxadw'
p640
I343509
sS'xMekAmDsCdhk21Buf9ucSQ'
p641
I343638
sS'9yznU3-I8x5V2s04eoPnzg'
p642
I112547
sS'TASUnYvk_nvTUyKtroCJSA'
p643
I216117
sS'c_azia4dh9JsKjPo28Ecfw'
p644
I267926
sS'9b-YnpVt3P5Sk0_yUDaMGQ'
p645
I271161
sS'JksZiHb_Vj1tYRTpuTg-uQ'
p646
I267908
sS'ZXl9KGsv-VEoDKCC_08j4A'
p647
I273548
sS'LOZlay4IkUpEtbdHZWReNA'
p648
I272734
sS'18TUn9oiW0k0yB6lheiOvw'
p649
I267908
sS'jnbXJiS7Y4v5r_P1iWZQPw'
p650
I267955
sS'qsWxbgQwuomXvMseg23DGg'
p651
I267912
sS'CN6AB-R4OLsKxFhQ1Kk68g'
p652
I275811
sS'aOVUvvO98vfoVUKUDpvEmQ'
p653
I275121
sS'syxUZu1GrJv0LYnV38hMug'
p654
I267908
sS'2ogxlmNxcE4yTJt9BAH8wQ'
p655
I271161
sS'vA9aCw2kTgN8p2SLdm2mDA'
p656
I112547
sS'ZoKxIEQJn4FrRHXtnmMznA'
p657
I111818
sS'wBq5l9OnEvDZs48mCgEFgg'
p658
I274268
sS'SkNUbFJiJtbZjY-S_S0u7g'
p659
I272734
sS'qqVmZ3H7j06pcJFaSA4pcg'
p660
I270315
sS'fKwCjTBOmwcbl4XtYRZToQ'
p661
I267908
sS'-XU3QZBluANMAvzS9xGQAg'
p662
I215515
sS'HDTv_rnmSL8AQ04_zTWARA'
p663
I216117
sS'bexPpkHMthuCaeC0g0Lrfg'
p664
I112547
sS'D6sriF-ak-e5D_MTsPc3wg'
p665
I184371
sS'z2uFdzUyJniU4yysFJvSrQ'
p666
I272812
sS'MVFeOZVt641WBvdsRmnhPg'
p667
I343524
sS'nJGc9XXWVgxvg190__pdOA'
p668
I112547
sS'dGLQz08LVEikQU6wDLfHJA'
p669
I275812
sS'-9Zy-3vhvOtsY5u2taOfQQ'
p670
I274959
sS'6ICGve6UyGPuLaGrKQBVuw'
p671
I273505
sS'_kpUIXl923FQS3eghdb8Cw'
p672
I272734
sS'Td4s3goUw5bES5JGxQcIbw'
p673
I272223
sS'nE51k932dNFc-gClgPguVw'
p674
I343577
sS'IbWfpebkP64zWgc9-ZVtZA'
p675
I274959
sS'Qxeh_4jjc9GfY5kSA8qwQA'
p676
I112547
sS'ppoQDk5EQjOJBYNEzYp9Hw'
p677
I112547
sS'-dOhouYkZyKQnV45tJ7tKQ'
p678
I276502
sS'vVzVwKtUdDqw23arc-bpPQ'
p679
I111818
sS'iGa98QSv71j77cxffwjGyQ'
p680
I267908
sS'bockWFDA3mzjuujY7tOcaw'
p681
I271169
sS'24qSrF_XOrvaHDBy-gLIQg'
p682
I267908
sS'jn3OgTqiQIFymRA9U0PTfQ'
p683
I267912
sS'IgcTIyJFtEOxWD7bFhjYcQ'
p684
I267908
sS'uUorjstNslr3gkIsVGtQAg'
p685
I271161
sS'XSeq0ju__Vo6vuwyq-enCw'
p686
I270317
sS'T_O-Nqgz2FVI6EEleA8kbw'
p687
I267908
sS'n1dklY6GFnpVLKwQE6kxGw'
p688
I215515
sS'Vmw4amlubvfDnIpkegvKKw'
p689
I273625
sS'2EyCkG53BPmgmxV8jiJJZQ'
p690
I112547
sS'Avf1d4eg4Bzo89RNWniRUA'
p691
I267908
sS'1pYcTdg1n7_S867aR4SAvw'
p692
I274742
sS'po5FyERB4lUZNnBIwnhFlg'
p693
I267908
sS'siixOX00BhEkUlKg3n06tA'
p694
I274959
sS'zOY-W35waCcBWDmjX7_MFQ'
p695
I275811
sS'fuoUja6AXOaOikyLaKOrNw'
p696
I267908
sS'PaBjO5u25govLw1m8pI9Hg'
p697
I267908
sS'vfCG9DdqkK1rvqw2gT3sLQ'
p698
I274959
sS'M8CC5_9vEvt1yOI2pnkvKA'
p699
I275811
sS'H-w8OMEloBosW78_f0f7Hw'
p700
I273858
sS'oEjdNvlluW5_Ng9kewJFBg'
p701
I267908
sS'qi3If1JcIP9JLusFpEmtog'
p702
I275391
sS'_wAFGWHxmWoogZ15Jn1Daw'
p703
I267908
sS'pTBS-RD0_DZwu-Scp0bWwQ'
p704
I111818
sS'l5vzFaqSjvxZiRn0MJeKkg'
p705
I267908
sS'65ujBUIwQ3iGBjymj268IA'
p706
I267908
sS'3ZVG1MSRuvheqZ4gOioQVw'
p707
I267926
sS'VAHiEHdVPlG2DVG3YO6C7A'
p708
I272734
sS'4vZZjr6IZAk4riT0DB8MbQ'
p709
I267908
sS'rAb_wfdKKPPbcIysjYcW4A'
p710
I267912
sS'Snu39WyiChz0NwFWRMyUvQ'
p711
I112547
sS'dkp49eYgIN8iqWcQDvqYmg'
p712
I112547
sS'vTHVf88tai9n0902QzZiig'
p713
I208709
sS'HbIiJgAcKu_XlHT8Rv1dxQ'
p714
I112547
sS'mG5WTamjKzje897WkCXiTA'
p715
I267908
sS'obAdXU3RULuUOww759_h_w'
p716
I271156
sS'naUFPFYH2CqHtTrV3IAJrQ'
p717
I267908
sS'Ug0LxMh0mZ0j0A-QjKzWng'
p718
I267908
sS'ps4-uXHymYSa6tjxLVZ-wg'
p719
I267912
sS'Jb5SB2OXbRW0e7ErGlMK-Q'
p720
I343526
sS'gZJmtLYGNLoAFU82XjJ75g'
p721
I267912
sS'R8gQHxVqHhehMINgAAfHPw'
p722
I112547
sS'u9b49Z4JmvbP6KTe26lyoA'
p723
I112547
sS'AGYchdte4sk69cFK36qaag'
p724
I267955
sS'6r8KHqgmlM3PWVZ7suyQ6w'
p725
I112547
sS'Gd3Dz1sbPjHBzwFxd7chiQ'
p726
I267926
sS'zugNPEBEAQe4KxZe_vPNGQ'
p727
I267955
sS'Msfys8NloDpAsWmhvC9T6A'
p728
I208472
sS'sz83FiPYmJ0uQFn0cjY9xA'
p729
I272734
sS'bkB1uosYeTauWO7yWJZ2Gg'
p730
I267908
sS'1Ap6ZNCvyLLKHP0wvCk9yA'
p731
I267908
sS'7QBJDNVH6VPAStSvOM_lZA'
p732
I214217
sS'MBEr_IdOPeaS9X9WvdofKw'
p733
I112547
sS'ZDKi3qsO8lSSogrIdbLJKg'
p734
I210081
sS'YrvU0K9sMG87vbRRrKs5UA'
p735
I215515
sS'rEKBr81s19Soh3dYj4bcGQ'
p736
I271162
sS'v96eOvQGYHukDu_UWqNl4A'
p737
I272812
sS'IIM0aFvL_ogc7iD36Dfzpg'
p738
I267908
sS'Eu4QU3A1QTIBk_Zggnpq4w'
p739
I267908
sS'EmzaQR5hQlF0WIl24NxAZA'
p740
I267912
sS'V3lQtk1LgwAEcF9j-BzchA'
p741
I111818
sS'Y_dzA9OHRKa0X1cqcRmsaw'
p742
I267908
sS'RIeWXLMHZQlYprYt1x2f1w'
p743
I267908
sS'l2gPB9mqiHSbpwSUa7zrjg'
p744
I271161
sS'LrXCQvkrdn9GloF6CyrRNQ'
p745
I270315
sS'GoqN6AJD5_mZGcXHjjCxkg'
p746
I272243
sS'PkBkqQpAoeX3Ogo5HBthQg'
p747
I111818
sS'U071C9Sl-ICavtE0hUMpcw'
p748
I208472
sS'YlznKuAxnd7j3QfXFzoIog'
p749
I343577
sS'af3q6fomE_0PUnGswpQ0-Q'
p750
I275309
sS'-AAig9FG0s8gYE4f8GfowQ'
p751
I267926
sS'zhQzX3CxM0tdBXwGUWmxGA'
p752
I343634
sS'8AskFIgGxqNb8RbcDCAfmA'
p753
I271161
sS'Y1HeP1ed5NPh7U5hhI7X0g'
p754
I267908
sS'YypLpwWA75Y9aWPCJwTv8g'
p755
I343552
sS'nvrXLcmknaYuiGRquWhwIQ'
p756
I208110
sS'7_pBQ2IJKxAumHl8hMAPXA'
p757
I267912
sS'9zlpLPhXYwK_STi2u8DjxQ'
p758
I267908
sS'OJcanoocedzNsx1S7l3A0A'
p759
I180250
sS'vWnwaD-kykqiEc2Q0hbYsw'
p760
I208228
sS'aRnnSEcv8T5E5gZxPWNE9g'
p761
I273727
sS'cX0BRezhCTm-pkK8_lwWAw'
p762
I267908
sS'OCmmPs_5NBt65ZY7OuG-lA'
p763
I111818
sS'93EFuYATJ0rgqO0uJLRYfw'
p764
I267908
sS'-KZA7UoULw_pM3jBBUzb8A'
p765
I112547
sS'DC77ROlgfnpxQNFKQbbpnw'
p766
I267908
sS'gVgJIBQDXHtgIS7p7uDa6Q'
p767
I112547
sS'rm1hBa1HPcLhUSwuincX2Q'
p768
I271219
sS'AJOejrnO0z4lzp_GHO6wUQ'
p769
I343509
sS'0VpsHbGLHDVKIKAi0ZliyQ'
p770
I267912
sS'rXokveEDu3PEtmd_-_4IIQ'
p771
I267908
sS'yk3vlzcgo0OJpm0JFSLcoA'
p772
I343509
sS'byNyDMlRwpWD1GAil5QXjA'
p773
I267908
sS'VsoLWxAIwAsz08Mc2bkyWA'
p774
I274959
sS'CkQKNhlm8DOzxbXm_zb3bg'
p775
I267908
sS'pjtB4FadDdq_DeyedjDsOw'
p776
I267908
sS'bxpzP73A7gauvxFEyd_8xA'
p777
I267908
sS'I4L_MJOZsnux3xCU2bLP8Q'
p778
I267926
sS'hWhVP-28LYP3llaMlAJ_JA'
p779
I267926
sS'8wF2zj1Np6x7DY5BpJ4C-w'
p780
I267908
sS'Z_6hNWPNC0O-IVZ5m3kBtg'
p781
I216117
sS'-2NCvK5807Nxs9GUb2Eo1g'
p782
I275309
sS'vyNaPRtVl-2PUT1cztqFbA'
p783
I267912
sS'ZogIIx8SdAFedjXDT9jFFg'
p784
I267908
sS'gN0IplaKOk3CfnjjeHcteA'
p785
I267908
sS'qWYdBWci87q7JRZenrGzYg'
p786
I112547
sS'KENo__8EAznfs92X9uu8vw'
p787
I214217
sS'Od9niVya8G5BD3a1l2ss-g'
p788
I271169
sS'SLn9eFs53XsMufuVAKWyaA'
p789
I267908
sS'FRDZ59oRvUSs4gf-itOCBg'
p790
I267908
sS'XzhsJecsCYj-Wc32zOWqmg'
p791
I270315
sS'n7snytnuDnAWmGb60YUl7g'
p792
I267908
sS'VWcaFOSFcDwmFquycBzFyQ'
p793
I267908
sS'dkXvUa_51ZmD8Ye-0wq7ew'
p794
I267908
sS'uDoTFFud2mXE3VT1Jt9L5A'
p795
I273228
sS'8E1EzFMYtuJdrOfgft_nMQ'
p796
I343554
sS'AnqXhbdkHHimMBR3UMS1Jw'
p797
I267908
sS'DNr2McGXQLleQkJ0zaCBHQ'
p798
I274959
sS'gfQriEp9aqLZgMhRSU5KJw'
p799
I274959
sS'UHIL-Sp2VtYkxDa3_8hH3Q'
p800
I112547
sS'c46YFIiJr8b380Rg8A3Zvg'
p801
I274959
sS'Uo2KWGChc_CBl6XsIvQVlg'
p802
I272812
sS'urBWfXQjyyWIO5B7FvnOpg'
p803
I267926
sS'hLAWdi804nVfTLF7T0rB1Q'
p804
I267908
sS'CqHTknOJHZZncWzGtpbNsA'
p805
I216452
sS'3hp7g98f7Bl8HANGb3Bghg'
p806
I267908
sS'Zw-sWBbL3Z9zyZ0ri9UT_g'
p807
I273727
sS'-nHYKkSJuQ7zzFZ1veRfPg'
p808
I112547
sS'o9IUr6fXe58u71woN2V0mw'
p809
I275812
sS'jdtc9AARnZLOi38Qvkdm7Q'
p810
I112547
sS'FjSYyID6pInYVsG-vADNzg'
p811
I275779
sS'WzQrtfz7DSQEv2CK82zhcg'
p812
I271161
sS'BdTRQw4z-bxVfDlv-JSb7g'
p813
I271161
sS'J7I85lTCEGr9-qp6AXPUjQ'
p814
I271161
sS'e5DtayybW4jbKcDBwEUmOQ'
p815
I271199
sS'PEFUYmqfqy93_xyCnSfGNg'
p816
I112547
sS'KyLEavtA-LAnDoL8p72UOw'
p817
I208472
sS'idzmPD7WYHoUjhLLKwtS8Q'
p818
I267912
sS'NKT8-CeoqUYIGUeNXBPVVQ'
p819
I271169
sS'A38wziZJdYoijhC5S6uWCQ'
p820
I271161
sS'6-jlUgqp0Mv3PUzMGjrb0A'
p821
I270315
sS'fyy4WNuchHJBa2zH6L8QQw'
p822
I111818
sS'1NXPatP_lv5tVtsm_y48Xw'
p823
I267926
sS'OmAWp8kUqXrW0umGdZgNUg'
p824
I208472
sS'31IcDxg3P4P2kCjZ3OLCNQ'
p825
I275821
sS'IzRwj5F_3h0oIC3SIdrOEA'
p826
I273776
sS'ejfy33R1avFm7oygL34uQg'
p827
I267908
sS'zyMBBLGAl5-XLTLCKEPsGw'
p828
I111818
sS'nBl_NeArpL08MpoghDiA_A'
p829
I271161
sS'wLZ--5d4lXImxrG7VhdTyA'
p830
I267908
sS'zAsxPh3h9xMQnSDGl41kSg'
p831
I343577
sS'W41CEzdKJe8wdDB-Rd6KJQ'
p832
I267908
sS'H7oxbxOf8Et5n6OD9uKgdA'
p833
I267908
sS'F5DJEqbNveNq8x94XU_Vqw'
p834
I274083
sS'N_TlJCR5AkZhmrCDqbm2tQ'
p835
I267908
sS'Ga0y-XHa4os_VvoHz21bfQ'
p836
I208967
sS'jgC4UuktGhEtCzZzhlE4Dg'
p837
I275811
sS'N2DwycuZl95miWf39Yskaw'
p838
I271206
sS'THKEfu-Inj4UGVwMChoNhA'
p839
I274617
sS'oH-N5ONrsWK8jWuq8p653w'
p840
I271161
sS'DHAq_WmQwjk7gviKXwqnjg'
p841
I216117
sS'kudu7t-QHJJa0aC0ojpm8w'
p842
I272223
sS'CRbJsmtUwbw-7lz7leO1_A'
p843
I210276
sS'b0QFCPXbG7k_TBexxs9fCQ'
p844
I273505
sS'aj4XHn7jZ48euP4g8ape-Q'
p845
I271161
sS'ih6d7hBWss05xXWUznuFaw'
p846
I215515
sS'detF53xgz7PAiuNzajLilw'
p847
I267908
sS'BOp3jcpYy31M85H1DLnEEw'
p848
I273776
sS'LYyGQgL60VKdV-p_9OxmWQ'
p849
I267908
sS'CIOiKtH0q8cyMBTO7WAF8A'
p850
I267908
sS'Gkh2kpzkzPT6pTkeiFD5GQ'
p851
I267926
sS'vvA3fbps4F9nGlAEYKk_sA'
p852
I267908
sS'rjz0s3OGzSDyezi71WEfxg'
p853
I273625
sS'BZqn7i_Z-MJ1QrxCyjFZSw'
p854
I267908
sS'VvcRn0JVfw0xhlCjHIki6Q'
p855
I267908
sS'-4PHmmCt_RmAfaE3sDKW_g'
p856
I343577
sS'DP70v9gay6NeKbFEdHAgKA'
p857
I180250
sS'3xEB9FyFXolq1b_Qn_BFtg'
p858
I267926
sS'osI3BT6AagWA-ravXrmK3w'
p859
I267908
sS'59HuAvV6cPuVqaDL3yoFxA'
p860
I273776
sS'HzZmhlRNLtPkMI0egh9Oig'
p861
I273806
sS'fmuj7u1gflmEjW-h0v9bwg'
p862
I267908
sS'VYsGg7O1kT_IRWwBn_Hg6w'
p863
I273727
sS'zDtaHLllku4Ontem46HyGQ'
p864
I112547
sS'E80cnPB9ve2Z5QeOhrkv5A'
p865
I112547
sS'YMTmjvX8IKdrlIsixawWOg'
p866
I271169
sS'4yrf5wPxntzJt5Iz-96OEA'
p867
I272734
sS'b3u-GK6_xj2fJkinzLk_jQ'
p868
I270312
sS'XcwbN5fDlyl8qCttcdDGKA'
p869
I272734
sS'Y1eMoHPnhwoOcYsKxGl74g'
p870
I267908
sS'ncJHHRHqsEKUl_5InoDBRA'
p871
I215515
sS'5pa2LaT37MOBBmUr36J-eQ'
p872
I274959
sS'LwwQ9CLHOXVqfWCC7IlNKA'
p873
I267908
sS'To5CjntVFawXM_hpAhvVdQ'
p874
I267908
sS'oDEaIbq68RkKu2z_kLeMdw'
p875
I276277
sS'uOwuJJhGaiAzuaDY7-o14g'
p876
I208472
sS'yR3U7jOgoD0V0sGovuyt0Q'
p877
I267912
sS'PEHJjxdw11TGFma9Zhz3ng'
p878
I267908
sS'-Gfj1gA0Ir07zToO-4fBpw'
p879
I343638
sS'vLlPTJV2KInOg6AIvNCf2A'
p880
I267908
sS'bcJ005JZRd4tkNb7i6oynA'
p881
I215515
sS'o_wRqOpli9kyZGXlJtLLdA'
p882
I208472
sS'cWe1Xoczmj2vD5h6BOrZYg'
p883
I271161
sS'r-EVE9HYaJoaaK82Z7o3OQ'
p884
I267908
sS'-S7aL8dVIiXjCdbTZVn8uA'
p885
I272734
sS'suUFgdhYzKqmAXNHUfSuqA'
p886
I267908
sS'NUohh--5lVY8pu61uy9oEw'
p887
I215515
sS'oMtqDDzpMcFrQwHfeYc1iA'
p888
I111818
sS'rRSrENv9j_rLnehMlQEukQ'
p889
I267908
sS'-iVcmhjfq79QoTWzrb6pKg'
p890
I271208
sS'015GCpe-tMj1En4NORROzA'
p891
I267908
sS'qU_m8sxR7frv_WmrgC8hYg'
p892
I273548
sS'Fi5sQxROyTLp5qDuYKz6bQ'
p893
I273727
sS'4QigcZn2BMfmfe66Tqui1A'
p894
I267908
sS'imvNxppzxkLUPH64pQsDQg'
p895
I267908
sS'ylbKNp9sLAks2N-WtssaKQ'
p896
I267908
sS'wepFVY82q_tuDzG6lQjHWw'
p897
I112547
sS'RclvpwTNSJvJDVjW03UGDg'
p898
I273505
sS'_y7fd5kvoD0bVc6sgOoEGA'
p899
I267908
sS'6HYAWv1hVAt-lQ6RPtjldw'
p900
I267912
sS'g0fSQ0yQ-zMAeqmLLbuoHg'
p901
I267955
sS'LT0AgHTpDifuHSXgyLmJwg'
p902
I273505
sS'wP1mQ2ehypFtao9zN0ASpw'
p903
I273776
sS'RpJCV0Qb5ymnL6xvPc7e8w'
p904
I112547
sS'bDK_jzy3Shx7jfn8_plNoA'
p905
I208472
sS'34TBKRXYq1JHe4kYlHW2Eg'
p906
I208472
sS'se7-O8GIXLBdKI0xv2wywQ'
p907
I272812
sS'KXt0Iky3ybeLsbY9KC6GSA'
p908
I267926
sS'u_NKrPlsO_EOp9aCWfcr3Q'
p909
I267955
sS'3KwmkeqyC-STUvTcPOxsCw'
p910
I267908
sS'uuLYxKdJW_jfty1jMtXxQw'
p911
I267908
sS'5nz-EoA-rjfZAApuRov4gQ'
p912
I275811
sS'AL259yRTSk5jQp6C4tjSiA'
p913
I274743
sS'SfrBXbRdNB_gqPkIgJyKCg'
p914
I267912
sS'8fLdtZp0q8TjVTsqfV6byQ'
p915
I267955
sS'u0P8ZOHbAY3B0-g4de1EEg'
p916
I267908
sS'XC9blQA9Mk4w7oKVJ0nJXw'
p917
I215515
sS'cuxqnMMmbBV0iE2KJJy60Q'
p918
I112547
sS'uILvDDCgw63_KJsZMO9GvA'
p919
I271161
sS'2WvCdAlP4Ck1wAb3LpNRwQ'
p920
I274742
sS'lZFUmxcvjD8LdzyTYXBd_A'
p921
I267912
sS'fnAU_q5JWWuPzMvwtQh3Tg'
p922
I214217
sS'ry4mTPc8hT6QUJhbD1mrzw'
p923
I275812
sS'kL654J-hE2S4ShF6atfYrQ'
p924
I271161
sS'j0uzPYXgu-hmkvuGnj-B1w'
p925
I271161
sS'Gqq6AF9MIbhh5wwGofeiJQ'
p926
I272734
sS'zwwmnQXk8jhFs4wwU8I4Ow'
p927
I270315
sS'ou5bnv1BPjJqYon6E1dilQ'
p928
I112547
sS'oSKT5oZX1NWYaHwOWL5lag'
p929
I267926
sS'ULvDCr7r9sMU1iSwgTHXsA'
p930
I275812
sS'fVgrpVyp-nPLTac9YIjTug'
p931
I267908
sS'31bXixwy2GNmRlhpl21reA'
p932
I267908
sS'kxZIebwbpe_ddry6EKMdCg'
p933
I215515
sS'rbg3POnoegWx0RQ0KGd0sA'
p934
I208709
sS'c2RzHxH4DQcH4A-a5FpidQ'
p935
I274148
sS'BDpPD2zrYX-1k-LQiz7f5g'
p936
I267926
sS'M2tiVOrtmsfi89C5WXtYjg'
p937
I267926
sS'DIF8m_FrhZnq3QCaZwXSsA'
p938
I276610
sS'5r4RxFZ51BLcvJQ7Mk_IDA'
p939
I112547
sS'P6H-p8fXbPq8VjO4kLTz4A'
p940
I267908
sS'AH1PrZQDIdjpKgy1z8XxUg'
p941
I271161
sS'OcTG-KzDleuRub-pb6JS3Q'
p942
I213494
sS'utEUlyjd2DjV3T23I8I1wg'
p943
I216117
sS'A_YG5lUWPOIQlZc6GOPWIw'
p944
I112547
sS'b856Q36EWKbwbm_XdJER8Q'
p945
I275121
sS'KQqkkg5jaxIbdMIG4MJCIw'
p946
I274082
sS'N8Bdlykr8F5xSs5D3SUb3Q'
p947
I267908
sS'20h9Q1ReVmsIyE7-IAVKcg'
p948
I267908
sS'1X9JUBoLUqkMF7PbYO2Q-g'
p949
I272954
sS'90ZdW5Hq-QHKFxLsO3T5FA'
p950
I276314
sS'1Jb1rWethA0w24c8fEd5ew'
p951
I274959
sS'ZGvCIF9zNGr4cctlj0vg9Q'
p952
I267908
sS'-CKrHtda1TSEySu9wrmr1A'
p953
I275811
sS'NDKkce5Au-o_OhIt5f2ZBg'
p954
I267908
sS'WyJuGTwFwoN0k8iX8FsqYw'
p955
I267912
sS'2r8jGeuYvMkyP2ik_X-Bxw'
p956
I267908
sS'r-pBY6vR_Iu5XhPRvPnquw'
p957
I275100
sS'F3SEkW6v2LJ5y6Ldo5pPaw'
p958
I267955
sS'ljk9LMGlc8ItupjrSKBoRg'
p959
I274959
sS'IYNZXcNVXiCVavCrplXPlQ'
p960
I270327
sS'x6dFuGT0ZedXuYgaJ-Gubw'
p961
I270312
sS'ejx-rekLkZ2RkNgSejf0pA'
p962
I111818
sS'ixTr1qXUFGTzyaZUuCDDvg'
p963
I267912
sS'wYZCfJ8XuO98ool-WygodQ'
p964
I111818
sS'oepqORGAqs3etUD9wwr1uQ'
p965
I343524
sS'5stgsDNIYtxOej-LXIsCFw'
p966
I112547
sS'Pzdd6vEQVNrYf21lGxr6GA'
p967
I267908
sS'L5387MoRyx9orlRyYfCSPA'
p968
I216117
sS'pD5SVf-E3wzC3dk_pn66ZA'
p969
I267955
sS'5jqqVt-A8bwwJDj7Ii7tvw'
p970
I267955
sS'ldIxXmxD3Cku0vODGYb9dQ'
p971
I267926
sS'i-cEO98lTS10WH30FyKvGA'
p972
I274959
sS'xgK6AAhJ-cYBUCSaLzgTuw'
p973
I215515
sS'1tSzow6N3xDM4t5sCkDY1g'
p974
I208967
sS'WUJvBRZ_4NfoMSJXDEQ8xA'
p975
I111818
sS'tGpSzj-PX3yD5DIbOFhkPg'
p976
I270312
sS'AfbmA85w6Fh4mPLwzTpLaw'
p977
I275811
sS'4RyahhRI6erthzm-vZu0LQ'
p978
I267908
sS'KEwv4l2RgiHjkjyYV0TuAg'
p979
I267955
sS'9YaLYI0DasCTrK2VAUqzlw'
p980
I267955
sS'wftoNIA0Q8nX-Da47psBCA'
p981
I275454
sS'2phadFQpAga7PLooU-IaDQ'
p982
I270315
sS'NP5ip6oP6O57wjnnEy0P2w'
p983
I272243
sS'UPCch094SUaQTTFEe1bveg'
p984
I267908
sS'PaD_6AJMbLt84QU8T6ymow'
p985
I210081
sS'Q_ntUL08gNFpCHhJALwQFA'
p986
I267908
sS'CNGrFenwRbwDzE24lKDfiw'
p987
I267955
sS'0zO219KZJf-5QsRNRMmELQ'
p988
I208110
sS'Vz_4tkOoNohtVYyfS4RKhg'
p989
I272223
sS'WxEe7i-BZUcaGzO1E1vNhg'
p990
I112547
sS'k9KL0ClKt37VZ2E6eXs32Q'
p991
I343518
sS'KuFSrX8CKnywmnwW06EqMw'
p992
I275099
sS'-J-kQpDGIkX_1XHfi0HG2g'
p993
I343509
sS'kUGgkYxXxHDhD6mtpQdUNQ'
p994
I267908
sS'guh1IT9l-USl0_5naD9zaA'
p995
I275391
sS'HKDekQegywCXBAm8PFw1MQ'
p996
I275812
sS'pf04_HoTlCMStImb3OMkig'
p997
I267912
sS'21hqlWgjmNgW4pBZJDuziQ'
p998
I208228
sS'45puCRQ6Vh_IIAy7kkfFDQ'
p999
I267912
sS'IQbEYPh7OKoUmsI6VoLmTw'
p1000
I275812
sS'DPViYrvLCByFRQBl90TLsg'
p1001
I272243
sS'djUOCI3b88i3pf0uDTk-1Q'
p1002
I273785
sS'Hj4MJTYn7vUdXdkiI6JK4w'
p1003
I272734
sS'Cg04AhpGLyLjP_Bkg9u6iQ'
p1004
I276007
sS'PIu2Rocm6_Vyp2M3v6TKdA'
p1005
I267908
sS'u5p8rf79qxDkXX129qZInQ'
p1006
I272232
sS'Hc-gCnGuF08JnPQq5lEC6w'
p1007
I274914
sS'N6ff0yyo9Cv_7XPz-YDoow'
p1008
I267908
sS'IFwRwGoz4B7glSzA84NWcg'
p1009
I273727
sS'jWzSdxU0IkIAOsT2Rubedw'
p1010
I112547
sS'aiF5GO27ahvnkzx70ohEtg'
p1011
I275811
sS'oxPXa21PPFtgjE6P4C3IDw'
p1012
I267955
sS'InLdOPcxrMzLo6-j9VE0eg'
p1013
I267908
sS'5-Z4vlaVK89X6gY2R9rhRA'
p1014
I267908
sS'0wFlxz_fv9jqb73o0jl0TA'
p1015
I343509
sS'gfpl_GyyY5uj6zJnIdzImQ'
p1016
I271161
sS'PowgfhnMrRKscqecHZdLzQ'
p1017
I270315
sS'uI0LvTXFACid1308KFO5ew'
p1018
I343635
sS'ZcaBYLRDDY4ecAPDGWBQzA'
p1019
I112547
sS'KPoTixdjoJxSqRSEApSAGg'
p1020
I267926
sS'XmdTkxKyJd7TuDLoiic1kg'
p1021
I216117
sS'kwmbV7MLjNVnwjVGSzCndQ'
p1022
I267926
sS'rbiRLiFTG098z9JaK3Nshw'
p1023
I267926
sS'r1sLMV2DfDfJZ8HJMzKhow'
p1024
I267912
sS'frnJyUd335JCPDjKHc75OA'
p1025
I273505
sS'Qrux6-NnrcbLmAiIOT9APg'
p1026
I276314
sS'q6mL53la1IIf-idZ40pnuA'
p1027
I267908
sS'tbV2PnTuo7xo1O0RVFzhdg'
p1028
I267908
sS'fzpRf9YEyoSYM4MMpiFUbg'
p1029
I184371
sS'YuUSUcgF5sxKuqzFHCwb8w'
p1030
I267908
sS'_qdEP87mBnGe6w4OIfHnng'
p1031
I274959
sS'JJFoeKZXgi2_LeECDMkkoQ'
p1032
I272087
sS'8lMQrVQU-5iG9UA4KvcnsQ'
p1033
I112547
sS'r8jeeS3k_diihMDSu9IjlA'
p1034
I208709
sS'VkFDer80GOrelWALdgNReg'
p1035
I274272
sS'GJIl37k1Kitq5r43eUZ1Kw'
p1036
I267908
sS'cZl7-Um4HiJWFgDVmMan2Q'
p1037
I343638
sS'_sBRg5hmoBqkZPzFpcMBOQ'
p1038
I267908
sS'MglY-6zpPbBUhbCZElSwrA'
p1039
I111818
sS'SOtuHbrSorYWYGh_GTIXbQ'
p1040
I271161
sS'Q9BXMPu2HnRDMq9X_2rHrQ'
p1041
I215515
sS'gxuVySgACHDqJlwmelFHLA'
p1042
I267908
sS'URkv8wB2g6peiTiEaVY0Lg'
p1043
I275150
sS'k5xF-YscT6xRaJb85liNXg'
p1044
I274959
sS'BRqIGc5nGobwIVxX9vxyig'
p1045
I343528
sS'nq31doWpCrr1UwquTXNdmw'
p1046
I272734
sS'FKHv7FkblONv9qqBndJUrg'
p1047
I272734
sS'CW4Qx9vk9D1o47Qgld5PLA'
p1048
I208472
sS'iyHtJGN4KtuSTUbB6fROBw'
p1049
I272295
sS'kaIue7GRCmkPzDeHDBTttQ'
p1050
I267912
sS'T57Zj0fBcJ10tEDqhrFSpw'
p1051
I267908
sS'7srDFwPPnzBaQoPW55Dc8Q'
p1052
I267908
sS'7-wsWsZgHug5LxHqC38mvw'
p1053
I267926
sS'unPzS1QJJctlZyLGFSk_HA'
p1054
I267955
sS'jfJiziKWDjk747jUwNy_aw'
p1055
I274959
sS'_9VHwmeMAWBYNj7cyc09gg'
p1056
I273548
sS'322Bh3yLkYWYLpzKkKZUqg'
p1057
I274959
sS'LVEHxJheleSXj1oKxALYbQ'
p1058
I210081
sS'PAtgWCLCFRQd_fjnihISOg'
p1059
I267908
sS'hBscDTusN57Ai0SnkQK8Sg'
p1060
I273505
sS'q_BKmbdlYfQJroJVHfYMUQ'
p1061
I271169
sS'H8QFth3DVsYbkJ2M7bTvmg'
p1062
I267908
sS'ti3-TiY1y6X8-VJMGNMJnQ'
p1063
I267908
sS'27cIh0prWEOO2anhGx2G8A'
p1064
I275735
sS'Q3GGB4ZMajP-Qmtdr1cVZw'
p1065
I343577
sS'ZzkAAfn6Y4HGd2eUi34EHQ'
p1066
I111818
sS'YSQnaRE4Le6CaonZICFyVQ'
p1067
I267908
sS'3msnZ6oe0sslHsE1js1QUA'
p1068
I111818
sS'OuRFI9c8s73i9whoTApxdQ'
p1069
I267908
sS'fHovFhbYJcy6y4oosMhM_A'
p1070
I275121
sS'seYxnMc1VrZsR7nc09ufmg'
p1071
I272044
sS'wtUaFgHGHnopdYh5m-a25Q'
p1072
I273776
sS'zaiw-S8Nfd5SUd7aoOF8TA'
p1073
I111818
sS'o9aeTDq7cOkqv_zzPPIMqw'
p1074
I273548
sS'qicXiOKmN-GFubYuiPAFKg'
p1075
I271161
sS'TGb6D6zmx1KP4aDDH5Aihw'
p1076
I267908
sS'6SWPWj74qF_pEVgDM3-IpA'
p1077
I275811
sS'FMrpyKPa4ffQmo015b3Bmg'
p1078
I111818
sS'GxlwZ1-ie5LmjppBNDGvzA'
p1079
I273548
sS'pmQ3aOm4A0wHkmQEzloe5g'
p1080
I272812
sS'Ia0Ri_qRKDDWaGAwZ5spug'
p1081
I267908
sS'bWWrrsPWuoHuAGUCgH8Tyg'
p1082
I271161
sS'xSgactTrgrMqN6bO4_NitA'
p1083
I273505
sS'P0aKJw8rb0DKLaGottHEAw'
p1084
I273138
sS'9WDlVq2r9eZ3oYAAzaWORQ'
p1085
I267955
sS'XI-_Y2XRw03mozGx0Z90Gw'
p1086
I267912
sS'0Xnduj9w6aYHOtN_RlHUng'
p1087
I267926
sS'WkD7OrSIHLzgOQo9wQHu-A'
p1088
I274959
sS'7Qyk427oNM9X_CrgQ1xMCw'
p1089
I184371
sS'8BOcD4EO-9hhEWps0fXm6g'
p1090
I273625
sS't_Mjhtr0KTB9uGNzxl37WQ'
p1091
I271187
sS'-Nanlb7SYXObqQ6dZ49UOg'
p1092
I208472
sS'NeUf9FyCCIN4MEseNyqkXQ'
p1093
I271161
sS'vM3bqegx5YDtWQ8N5ke3BA'
p1094
I343577
sS'BK-ciqxOZxBd6vRKvdFB3A'
p1095
I267919
sS'qjaYXh_Ets-GN0r7QQAK6g'
p1096
I267908
sS'olih4bRJ2DflxZQUU1B-Qw'
p1097
I273505
sS'KQzpjBmnAMXPqipeWTKG0w'
p1098
I267926
sS'AvxRiLcQ59UH0_64_lr_nQ'
p1099
I112547
sS'63izc-T8hy808a-Ga2Uxdw'
p1100
I112547
sS'9NL2GL4jSPVj9SKijH5PqA'
p1101
I208110
sS'SSpo77CXIwCjEjhxEDYslg'
p1102
I267908
sS'g58NW9q4F09wTMiI7EIjmg'
p1103
I210081
sS'r6MYnJNg02l9bM7sFxsUrw'
p1104
I274743
sS'-h46lMwL-VfUi40kqX4GaA'
p1105
I112547
sS'5y6NVPJIug3LYmKp_at_yg'
p1106
I112547
sS'1YEuqVtVMHdpavzoGcUUug'
p1107
I272044
sS'CxAupi9tjzTaGG5Fasu9Eg'
p1108
I343634
sS'm9k4BhXgNTBTguxvLNUaEg'
p1109
I267908
sS'5kA00AnMdSjiwjowEIR9Qw'
p1110
I112547
sS'pvGT62T6Ci1LKOS9DL42pg'
p1111
I271161
sS'LkFYWBEdmHE05UkfIkK4EA'
p1112
I343577
sS'9pYBiLe3k5Gi-AJqRklXcQ'
p1113
I267926
sS'lcTvWTFNumxkTBZpSkk1aw'
p1114
I275309
sS'R6ojvMJvskHGBbtednMQ1g'
p1115
I343524
sS'5CfsPNHmj7J8l1qXk-USsw'
p1116
I267912
sS'iCEBW0cHK3jDUFXGni6n-Q'
p1117
I112547
sS'YXuvFMtygHPFEOEXgRtgLQ'
p1118
I272753
sS'QBS7wyalMkUmPFhIBm4MPg'
p1119
I273727
sS'AvVRPaKoiYl1lrP8Voi0Fw'
p1120
I273548
sS'Mbh2RH0MGCmDpp9ulvdxaw'
p1121
I267926
sS'JQyPZXDqoABsotLk3ZD3Sg'
p1122
I112547
sS'AGnIn5fNTniUa1x9XdqCvA'
p1123
I267908
sS'20DyG_lwW8ymzA-0dhQpsA'
p1124
I215515
sS'IGF_b0dO3R2J-p8x70gK4Q'
p1125
I208228
sS'EU-V1LuPB3hoJCgk3FMg9w'
p1126
I216117
sS'n_t3HHkoR3TXomoBOcVZaQ'
p1127
I273548
sS'oGlIk1ho2Xp946kXdvKnOQ'
p1128
I267908
sS'WXpi9z1bqF9raZSW8z70Ow'
p1129
I271161
sS'Rd5SDxM3S9QUvRayhqZl4Q'
p1130
I267955
sS'nvrdAXTmWV_wsyQguO3acw'
p1131
I267926
sS'jTGQUWGIVvL-aY03C5BEmw'
p1132
I273625
sS'cF_7182bPdS0ku9wn0Ww4w'
p1133
I267908
sS'jq_YnMQjcArdBWuwRospFg'
p1134
I267955
sS'ZdmGDAT2VwXZZKQ-xHVORQ'
p1135
I267908
sS'4wv6bwwagVGudKbuHsBikg'
p1136
I112547
sS'fJ72j9pRjLcRzBA_EhB4-g'
p1137
I270315
sS'd8gwlc_K5AlS378wuJekKw'
p1138
I274959
sS'y7_SsS3WvxUjCmk923JgUg'
p1139
I112547
sS'uJMwoQ0XGLr2Z4wxEFt-QQ'
p1140
I267908
sS'qjXtirU34PdTjPVbup8cTw'
p1141
I267908
sS'7FLivO-e_4SmyNxr83aIaw'
p1142
I267955
sS'DEH4worm2017xT3KHLoyAw'
p1143
I208709
sS'hODaBUYzv0AbApej_bfZ-w'
p1144
I273776
sS'XhVqPwnKEFa6QuU-NNb2ag'
p1145
I215515
sS'eRcfdmon9Tj_F42qzgB5SQ'
p1146
I210081
sS'2nxQ9enKGYktl0AHZtQgog'
p1147
I267908
sS'aVBebzA7D9DpQ-JbiCxQNg'
p1148
I111818
sS'Pn4xv1BGBmtpVBmUcIsrpQ'
p1149
I272252
sS'mp-1s0YQnYg-jfQ_W0UMiQ'
p1150
I267908
sS'T-AAN0CizEBOTtHinTuvrQ'
p1151
I267908
sS'esfqtf8JcCNIoF5XgKO-5w'
p1152
I184371
sS'J2Ba_GWP8UBZqfjTZfYgog'
p1153
I267908
sS'HgoYXFi_R2LbzYUDsa79Sw'
p1154
I267908
sS'JmVCQcs1lAn4zk-c7nv3CQ'
p1155
I267955
sS'QRemAT_hDSsOW6aqqQ8E7g'
p1156
I272812
sS'u_dvMV9OO8QfOpvP70nIhw'
p1157
I112547
sS'nbO0X6SNrZWOoDQS3WQCPw'
p1158
I267926
sS'avPNEqlXgyBvTXjb-ujQFA'
p1159
I267926
sS'vdYXCHXi1KlnGjeEu9yy2Q'
p1160
I274743
sS'IFzagko8Y344ajAhWOxnUw'
p1161
I343577
sS'JImJictLIE48_O1z-l2TGw'
p1162
I112547
sS'i-tKO0n-1Tq6sTFUrhg9-Q'
p1163
I274959
sS'NL1zxchs_XJPTdCQ-jqPDw'
p1164
I271161
sS'epXH-NxReRzcJzpMyBEXNw'
p1165
I267926
sS'WtTF0_KzCunQpRoojbF5ww'
p1166
I267908
sS'CxGK5_GoIhG9798zYPsvfA'
p1167
I274959
sS'Z4VS9F1LFEYFiHLy_az95A'
p1168
I267912
sS'SyUlZeqPhXrPk9IRb8a-Cw'
p1169
I112547
sS'CHbNr9OA_1o6PtmUlb7dDQ'
p1170
I276071
sS'N1jurx1Ijhe4qmmU9ukgcw'
p1171
I267908
sS'KXh8CE7KF3u3RdC70Ecenw'
p1172
I267908
sS'G5dIek0rXPTHlqlJpCNmpw'
p1173
I273505
sS'3jBkt2zeO1t0mUUBJMzTJg'
p1174
I267908
sS'adEJYiysRmK8eDqnHP9N6A'
p1175
I112547
sS'k7cHTH24b6Rr7AnOFInHuA'
p1176
I112547
sS'WBtMVB-3fUTsMV7VasVdug'
p1177
I343535
sS'KVOsmfgWSbtTTKxNkXB1Bw'
p1178
I267955
sS'GQN1Y9iC8rfxMKKo2lEiug'
p1179
I272044
sS'jGxoZbHB9-gIThxQFEv73Q'
p1180
I274989
sS'dCb30p1TiS2tQc8DXrTd1g'
p1181
I274959
sS'wnOQw4nazfglLxwLogTlng'
p1182
I267908
sS'pYJ7o-LxNZ3K3KUd8d3pXw'
p1183
I267955
sS'Xia0Lo492MDWbCd48scnYA'
p1184
I272223
sS'xMyTUliefguc3bfetGebJg'
p1185
I343524
sS'69t2S1u7Rf6qM_c14b42xQ'
p1186
I267908
sS'Guw0j717cVbVLYfn3sK1RQ'
p1187
I267926
sS'uQJxkV5v60fNkrOj0J2sTw'
p1188
I210081
sS'LAePspPTgdowo_yJJgvn5w'
p1189
I112547
sS'Pa_brCvUaiUPPvm3tJQwgw'
p1190
I343522
sS'A2FV9GfXrlMzMRi_Bg3URg'
p1191
I111818
sS'-zHQip1ka7ak6yjWYOOqwg'
p1192
I272734
sS'QsvRjgQacMMFf8dit7qqDw'
p1193
I267912
sS'iOW_bIuXxk9I3eTdwthUIQ'
p1194
I274546
sS'0MWQUlJA0V7WrfWdP70w-w'
p1195
I274148
sS'onv6-u283dEMVkFeAixYtw'
p1196
I273505
sS'FZ67NZD-_aou82e-7TT_nA'
p1197
I210081
sS'0eX3fQIVekKGbEISfhcQwg'
p1198
I267908
sS'545sP7uSdCcKDZ-reeVOgQ'
p1199
I267912
sS'R8VwdLyvsp9iybNqRvm94g'
p1200
I267908
sS'VlG9qxAc4d0em2djaU__xw'
p1201
I267908
sS'qqUTtdhvmXQ78AvKEEV6aw'
p1202
I267912
sS'3m7GB5z3mm9Cbb7i9MnDkg'
p1203
I112547
sS'bOWm_Du7AN2j1Mdti38lcg'
p1204
I112547
sS'e5kc0CQ4R-PCCDgb274gSg'
p1205
I267912
sS'r-pc0VgtiTuctH3kUve00Q'
p1206
I112547
sS'UV8yJ3Z6DTOfns3_aehDrQ'
p1207
I112547
sS'Z-BI5HJmC2HcpiVuXwVM3A'
p1208
I215515
sS'_Cf9JVJhkY3R8sApgyKTlQ'
p1209
I275811
sS'hIQRiE3UsYH7UsrsDwJwLA'
p1210
I272954
sS'UyEbMXjDTNGks_k12fGNdg'
p1211
I343535
sS'TepT2VeFe3tMYdAiqj12vg'
p1212
I112547
sS'wct7rZKyZqZftzmAU-vhWQ'
p1213
I267908
sS'eK6KGMKqU_4nB9RdayZD7Q'
p1214
I267912
sS'WN-cvQpxRoqkcAg50fJaPw'
p1215
I270315
sS'k8KP9qHJeYW0-nU7ykLu9w'
p1216
I272954
sS's4gUV_zb8EeYosek2GBB4Q'
p1217
I267908
sS'4PIDGWu8BGUSGe1PK926AA'
p1218
I111818
sS'wHi8ODv7TGmeUB02XoX-mA'
p1219
I216117
sS'gG7j-FWm_2VFf_lnH8dWOg'
p1220
I274959
sS'59JAguBIKS95_ohKXZtBfw'
p1221
I271161
sS'xsyIKrKNsmcOMsBipNlO5A'
p1222
I267908
sS'LTHOj7AV1epKobPNri9ISA'
p1223
I267908
sS's-cFWOk9LXXZCrm4lKpjEg'
p1224
I272954
sS'A0EZxGt3hm4mo2bTjCzJ7g'
p1225
I272734
sS'1lk-nBvl-mxV2PXLb29xBw'
p1226
I270327
sS'lHP5STO7aomlEQixH8m1aA'
p1227
I215515
sS'QseK4W6BwKsyDd36ksxeew'
p1228
I272223
sS'_BhzcKojv1gjdRINe3Gkig'
p1229
I267908
sS'rlrSUtmUnM84AVb616Qy6Q'
p1230
I267908
sS'9BH18avE46LlHMvJn67MaA'
p1231
I267912
sS'QC3osgPdEl_TEZA2CtNeQw'
p1232
I267926
sS'MUT6gWy0NtuV2IioiYUWFg'
p1233
I267926
sS'f1H9fcDsYl_U-nI8E4y5CA'
p1234
I267908
sS'wTiQXYB9fE9rcSZDsZgbtQ'
p1235
I272734
sS'9WVcWmfqATexHjNgc3303Q'
p1236
I267908
sS'sxw6uoNBIEo4QctMWx_jgw'
p1237
I267908
sS'NdHDqKjNyeocNRShjUPyZQ'
p1238
I267926
sS'Upru5VE0jZ81ZQVVNCK_uA'
p1239
I267908
sS'BbIh5NTizhV4Fq_mLmNkpg'
p1240
I208967
sS'juZpQGOPbhc03TEyIA89nw'
p1241
I274959
sS'pvaUE-Cmg6k37GQ-LluOLw'
p1242
I274959
sS'_gfsViDMnSmbrxutv2pqAg'
p1243
I273978
sS'tenee-X_e6cGAqceCIs4iA'
p1244
I215515
sS'ZQwSqRqrBRZYAjFJDXXX4A'
p1245
I267908
sS'E9s5A9n0KmPV764ldWu6iQ'
p1246
I275811
sS'tQpYnf3P3Q_OQLYYJvlV-A'
p1247
I208472
sS'PuHucejs4LG3hSXnrwi9-g'
p1248
I267908
sS'JrlQeSad3Dzf2IV8umZ9ow'
p1249
I273548
sS'tI600wWPFDc4bxEvrbBpRQ'
p1250
I267908
sS'_DziycfFcop5p_9VzE-DyA'
p1251
I267908
sS'S4UzAa0XMYU5oNG3rIwsHA'
p1252
I112547
sS'-KQ283hJkBO12u8XOrlCcQ'
p1253
I271161
sS'zMa6YoEekpABg1HZnnTZdg'
p1254
I267908
sS'2SwC8wqpZC4B9iFVTgYT9A'
p1255
I215515
sS'3qBJAudFUukKfSrVVUFknQ'
p1256
I267926
sS'PQ-h1-ahAwkICsz5-Zl5Qg'
p1257
I267908
sS'QGOztEZthxVG0R_Ns5__xw'
p1258
I112547
sS'TqkBwRmoEgECElxeY0OgKA'
p1259
I271161
sS'Rryjtan7HSL2Ux8FJ16qMA'
p1260
I272734
sS'qA1PXTv0snTO1gpNPm-Jfw'
p1261
I210081
sS'QIwnZALGRNSR2HvOzjyDlw'
p1262
I343526
sS'7YPQDYBoeR7ThahECMGV4Q'
p1263
I267908
sS'14YLCwzxdHOCasytJiQPoQ'
p1264
I274082
sS'xWcTt1L4vQC_QkPfPBVlCw'
p1265
I272734
sS'Im62ug5-qDonp9Kne1sCUQ'
p1266
I267926
sS'LO3uvzhh3fUtEQD3AJUxWw'
p1267
I267908
sS'brkJrGv2Eaj9NTl9g2RMgA'
p1268
I343537
sS'Ij5mFZhEjX-zT8f3vBMe9Q'
p1269
I267908
sS'DeAnVirgOxQnI36V1W158A'
p1270
I267926
sS'G9U_t5ClPfexHheBdj5V0Q'
p1271
I273776
sS'evdDnCfBUhF-E7undvPNQQ'
p1272
I267908
sS'GHfBR9yVXkLeKgobH52Jiw'
p1273
I271161
sS'y-Fx-K8tYKMdVW32bojcZQ'
p1274
I267908
sS'i3HfmM-evIOLpJ2wuTZVKA'
p1275
I274546
sS'04HakCR6gEeRYNAoKxkppQ'
p1276
I267926
sS'CxDF-UmfKGmWdrNHPi028A'
p1277
I267908
sS'o8Olw8RjgziJh4vPaFlqNQ'
p1278
I111818
sS'rMizXwsWcnGzBukGTEeSyQ'
p1279
I274742
sS'hUV4bjXE8Ijd-pDNr8S6mA'
p1280
I271162
sS'cRv7pLvIe3eI0efndQBcLg'
p1281
I208110
sS'Hm61vENWRqcAL_v6E3dD9Q'
p1282
I271162
sS'ZEhKT0M4iMwlVwk5zQ2Kdw'
p1283
I267908
sS'Lom8K4ZK5LIlRe2ZO90s9w'
p1284
I274082
sS'FRYCe6Yc0rPzzloSWSsl1g'
p1285
I270312
sS'6YZ2oV54z160Zrf9QQkcJQ'
p1286
I273960
sS'4WcxnNv_lzCIG2eb8O5Mlg'
p1287
I267912
sS'cvhsdSDaWPjLVnTThQkx8g'
p1288
I112547
sS'HewFMHr2HWfxmjCrflnKrw'
p1289
I267908
sS'R2Ej1vlJyZ__BOLF1uMqpw'
p1290
I276610
sS'jzPMl-NoB5F2fwoHX3hN8A'
p1291
I267926
sS'lGEEvvIfzFEWuuqv0tKOPQ'
p1292
I273138
sS'nRA4IRi5sZlmb_XUSzgAgQ'
p1293
I267908
sS'cBoFcjuNaWDQ2MP7GgeSBA'
p1294
I273505
sS'Kau5iJl6VR-TJ20YGrL7MQ'
p1295
I267908
sS'jgqJJvPeHJqVu4iV1W_11A'
p1296
I267926
sS'vaqmESluryt5i4Wbkb6KRA'
p1297
I272734
sS'Qj2h9JA59E_J-ogfdjx7Lg'
p1298
I267908
sS'EQDq4hZ45hDEHaWn6yuZyg'
p1299
I273228
sS'xAVAqgpZOYYvP4BtfUInsA'
p1300
I267908
sS'WPSM_oTPceoSnwqQWfAsdg'
p1301
I267926
sS'pabBnIObNHlmVkviQgnkGA'
p1302
I275811
sS'r5S_wYdu1vKRW1k-7_yOIA'
p1303
I272223
sS'zpKmFI47BWUT-dUlTDSVug'
p1304
I267908
sS'UxvOXcoCRFRAVhRB0D9imw'
p1305
I267908
sS'fhqdlwLbO4ec_vavw-ke1A'
p1306
I267908
sS'jd7yAsF-T4OlI4ejkJYJrQ'
p1307
I272044
sS'M2j4ncoX2xtAmry1yWqwPA'
p1308
I267919
sS'Vsxdu3kcERETQcagFwwFgw'
p1309
I267908
sS'idP6mIwLoNLCA39RMcSm2A'
p1310
I273228
sS'_5I-VfhdIvSzbrbQAkTtoQ'
p1311
I112547
sS'tGTw5eeAwLmaSFKLVasb7w'
p1312
I267908
sS'aBHf1s6Epi3k4pXKIGd0dg'
p1313
I111818
sS'sqWMSOlxpGniLqMzXmfBZQ'
p1314
I343518
sS'RqWF79LfzXl0PAN_hVCa2Q'
p1315
I343637
sS'5nEnDOd9zKYa_J5SO56-LA'
p1316
I215515
sS'qMkIbQFrROSnPaQ7at85-w'
p1317
I267908
sS'rgyvl8tNVAony634_9vFdQ'
p1318
I272087
sS'CLDLirWE8bvO0wnjDqHJRw'
p1319
I267908
sS'5WQhLNpG6xZryVCla4gMRA'
p1320
I267908
sS'1OPwAPOYKkeG3eyZbt1W3Q'
p1321
I267908
sS'mpDxBBGywUE6GRRKja3sBA'
p1322
I273727
sS'uAOkzDB-utLw2u-6SNGdlA'
p1323
I272812
sS'lTBAS3MtTwmYkgnGbIH08A'
p1324
I267908
sS'yWVY1Bq19lDxu3BP7_96EQ'
p1325
I215515
sS'X9ih9Iotd-VEZ8tTYfoarw'
p1326
I267926
sS'zk3T2VVl2Vcdg1tKD6SNhg'
p1327
I267955
sS'yfuoL_w76WFVHcGJbw0IIg'
p1328
I271156
sS'oTojBCc-Lex09Fww3QmWWg'
p1329
I208110
sS'VJG4T5gCHqav9Y96upKgUw'
p1330
I271192
sS'3uhvCZnMzRcV7Cg-BDLkfA'
p1331
I274959
sS'zZmhEpiVpRfFQid87-pcOQ'
p1332
I272734
sS'BIYvJTxDQQdwMEBh4Ltw4A'
p1333
I267908
sS'e48UufPpmZdPc-x4HSWibw'
p1334
I272124
sS'4LcFKTr6Ah87VcxW2z5e6w'
p1335
I271161
sS'99WYCuBEsO7OUCDWbbrrew'
p1336
I272749
sS'Z93nRPr4suUxo63pJR9dkw'
p1337
I343577
sS'UQSGL98JH8346Uv9B9Ec0g'
p1338
I216117
sS'3agV-iW8yukcXpbHom3p3Q'
p1339
I273505
sS'0PMs2OgT2sTIJrQcxienVg'
p1340
I112547
sS'Z_QsNnSvKLcDpa-FbD8tQA'
p1341
I267955
sS'IZvR2t778V-3PqopbsZdeg'
p1342
I267908
sS'yLJeaZrH826Udsh_G8ZP2w'
p1343
I267908
sS'KnlNwiIELDWAR686Bk2WJg'
p1344
I208472
sS'S6_IpnAJC-jyYoaJ_v5HYQ'
p1345
I273806
sS'xhg1i3DoJvvTSxtGZ4j5Gw'
p1346
I274310
sS'1KC0E2lIysAxK0jpynNhDQ'
p1347
I273548
sS's6zzKc7UvwDRxn-BFlhiTg'
p1348
I267912
sS'GQloL8yRHymE0SGZq-B0zQ'
p1349
I216117
sS'fPIGHcsfCOclFYg2DPOvFQ'
p1350
I275565
sS'rzcK-fYhrQGLt9uvv-Boxg'
p1351
I214217
sS'S9GjxjSeAaSUaQYfdlR7jg'
p1352
I267955
sS'YMEtEsUDQKOYJOcE5Fx3gQ'
p1353
I273999
sS'ZAgPh4v-oOb1g6cdlkKI0g'
p1354
I267908
sS'XWDk-pLSbVE2Vvv9Z-zusQ'
p1355
I343577
sS'qRllNpkNjFFj7sPlQkV1mg'
p1356
I267908
sS'unXHmjewHGeWQwJr74Sy9g'
p1357
I272232
sS'HghAgkxoEpUNZNQbAY485A'
p1358
I112547
sS'_BU867oRCLZnDIRmg7S6Wg'
p1359
I111818
sS'1eWZa9FxbVPpd6jyyKy3iw'
p1360
I272734
sS'yZiDtpCarfI2f1qbZYQiJA'
p1361
I271169
sS'AcD5G-u_GvLSnL4Vppq80A'
p1362
I216117
sS'acnZqXktCu7_x2c4i3tMsw'
p1363
I343526
sS'nW_1gn19lMnS9IF1KlZ-aA'
p1364
I267955
sS'_iZjif9s-jF_Oju_1fhVog'
p1365
I215515
sS'S-JGnMWqetTwpZdzP5tDzw'
p1366
I275048
sS'zkFP1CIt4MNLNkQC4Vhg3A'
p1367
I112547
sS'bZahIj_xo--1ky80H-J8Og'
p1368
I275735
sS'-PisznY2s13FyX3tASY4aA'
p1369
I267908
sS'3rhh2kvu3F45jD_yCxdW6Q'
p1370
I270315
sS'Jj7EE1vPUaKHykA7WzlIew'
p1371
I216117
sS'h0ghmixJAASAiqknC0BGeQ'
p1372
I267908
sS'2w0ZbDPEwhM6jMjJhgIkEg'
p1373
I273625
sS'g_XU88LhAeONO46eA_i4Fg'
p1374
I215515
sS'vB3vEjcw9dfHmgP8ac5ZMQ'
p1375
I111818
sS'eEMw81tZOYgW2xRX7o7W4g'
p1376
I273505
sS'0vYp6ITH7FsBtlpFcWTdRA'
p1377
I275454
sS'99O4vKVPsqZEF2BkO_SL_w'
p1378
I112547
sS'5dTp7_eChd1rO0Js7xSiRg'
p1379
I271161
sS'g-Q7G5Q2zHb1BqoF8pq-OA'
p1380
I273505
sS'nc3IiY5LNdmEwUZCW84yuA'
p1381
I267912
sS'n7G2XFGvmS3duDJ4AzjKiQ'
p1382
I208110
sS'DeuczlKSckFFFV2IVR8EVQ'
p1383
I272734
sS'WH0Q0CmYW00vnJpG37O_cw'
p1384
I267908
sS'i_nkxbd7feg44QkdbG05UA'
p1385
I215515
sS'rwzPmdpWG55_6uEmKl9Aqg'
p1386
I112547
sS'JrHGyyojkdJqc8pD8I3GEA'
p1387
I208472
sS'1OigyqVxIfE6AGKNGWZjnw'
p1388
I112547
sS'BxNXiZaAi6OSpUSFXI5KDw'
p1389
I215515
sS'4eFIVmbeCvJGCrhzmd-VYA'
p1390
I267955
sS'lRM-3Fwp3RkK-wecxO8P8w'
p1391
I271161
sS'EEuGTah-oEssSl3o6pK-ZQ'
p1392
I274732
sS'7TH1gyxarXXDANaPsft4aQ'
p1393
I111818
sS'RmGlsFfoxaf9vWpfkyXBjQ'
p1394
I208967
sS'cv5gS-zYooEchtLRlvpXpg'
p1395
I343577
sS'nLTTeGZrT2S2xaUISCgrSw'
p1396
I184371
sS'Ptp_ubUWdDHr_-QFVERSOg'
p1397
I267955
sS'JobP0ghILdh8S8l-LhHHxQ'
p1398
I267908
sS'cmCSWgn-wiLqbiqnoHhFEA'
p1399
I267926
sS't54zAs7IftAVb9SKcCRotw'
p1400
I267908
sS'ME3ctO11RLYSTTE1NkLXCA'
p1401
I274148
sS'ia2B5u7ljmbaiVC6UVLhmw'
p1402
I275391
sS'-OjA9Wvnn-XExG-9Djj2og'
p1403
I267908
sS'tyXvO1G2qK3MUfaap30auw'
p1404
I216117
sS'O02yhnk20alGOBw0HcmHGw'
p1405
I267908
sS'4hGmjqr7VXmV-hrWHLy9Nw'
p1406
I267908
sS'f5ntGOT9_0pCdeUaUVi9cg'
p1407
I343577
sS'q1nDSpmV-FdTBNj6UuZvTg'
p1408
I267926
sS'NBWAHZW44AjKffz5LMj9Tg'
p1409
I112547
sS'pRmHreZcF7YmNEEPukfcFg'
p1410
I272734
sS'BHFBi9eEQqzh8QaUYyngjQ'
p1411
I267908
sS'8w90E7e-E1lcRMLxbeyrQw'
p1412
I267926
sS'hKB8OTUVIYLlDVWqFg8lnw'
p1413
I267926
sS'imzKM9-mgN1Yk_RIXx3IgA'
p1414
I216117
sS'GK6RBUJUBScobbF1oE5iuw'
p1415
I273727
sS'BicQSnGZnY_yuGEDkhVfnA'
p1416
I267908
sS'bffCUYaQ4FejTfu_xFwjyQ'
p1417
I270315
sS'x5Mv61CnZLohZWxfCVCPTQ'
p1418
I267926
sS'iTjwgc3rHS5k3GptqIp2Uw'
p1419
I273505
sS'tOkslXW-xMBrCQKNsnE1rQ'
p1420
I273776
sS'kHqX2hynA5LnPYjFBrWCUg'
p1421
I111818
sS'6drS22lrBQGaW02Zs5vpMw'
p1422
I275811
sS'TNKr6FelsEqOHnatOgWhog'
p1423
I267926
sS'nhPdxY-jbf-XVQ6Hq6qJPw'
p1424
I273625
sS'EazMTR-bLp8DQgMfUqQMoA'
p1425
I274546
sS'01gRLh9-kr_ZYABrGwNxpg'
p1426
I343577
sS'G3EsKzy3i-CvrEDjZzTV0g'
p1427
I273625
sS'c8JCwGEj6WMDEpb1Tqp_cg'
p1428
I267926
sS'_91N3Q_MB5Nula56ZWXzSA'
p1429
I275811
sS'vP7-03_-_NoNfwfeYADDPA'
p1430
I343519
sS'o3TruOSgOwNgx08QosuWTw'
p1431
I267908
sS'X_kjTFpt1biAbDzrX3uAwQ'
p1432
I112547
sS'-yPdEze6bYRV2Sm1t4XJhg'
p1433
I267908
sS'-Fv9yPpyBd2Ophih6b2mTw'
p1434
I267908
sS'kP_NxoI4DyQ1y60i5xsTCQ'
p1435
I111818
sS'GIqmLJsJYuzwrj7oviJ_KA'
p1436
I270315
sS'XNUP4pbOL8oj34wWDPVu5A'
p1437
I267926
sS'0gQrhOYWdO0XVZEKtOrvaA'
p1438
I112547
sS'207cpG9Pu08La2qVe4ArqA'
p1439
I274742
sS'5m1L5l_k2xFTZO3jttmVOg'
p1440
I267908
sS'NUR1pLEwUETAvcW_1rfGFw'
p1441
I267908
sS'LrPG6AgIomIrSNTcwJU5Hw'
p1442
I267908
sS'vtbGnxCCj2I9M9QoHXpoEw'
p1443
I112547
sS'hxruECjY-r3Y1WBaFcl90g'
p1444
I112547
sS'KNIw6kwf8LZkrS1lEnaLiw'
p1445
I267908
sS'4nFqPL-glgDm9v7bZptskQ'
p1446
I273505
sS'5UBAWhxukaPrc_0DalT-3w'
p1447
I267908
sS'gdaFZvWpmWIDri1Fv9PEHA'
p1448
I274083
sS'ttsxQ4P_jEqKLxwkLUI8_w'
p1449
I275121
sS'RHk6l5YHCUwoInVrP1ZvoA'
p1450
I112547
sS'2kme0ANeHc20ij71zhx4DQ'
p1451
I267926
sS'C6oCdg9wVaS81Re0WfBJzw'
p1452
I267908
sS'5W0WLaM5gue42MQPpcB0lw'
p1453
I272734
sS'aMsEP51zdkdJpG7so9zmzQ'
p1454
I112547
sS'QdbZyl-LWFS54u93Vjd5SA'
p1455
I267908
sS'aeRyndix1wheBlff2FBsMg'
p1456
I267908
sS'0PRRN8ncFFIY4nPIbmbqbQ'
p1457
I267908
sS'MMNBgMQCdwyVoNaHg0h_QA'
p1458
I273625
sS'ZFMIu3mx0nIU2cmua7jkwg'
p1459
I270315
sS'K_l1UzNFe3DEo2D1XokkXw'
p1460
I267908
sS'HfWkdqxegjiGEXzI8j7Wwg'
p1461
I267926
sS'ntJAKLAq0cXzzdFgPoo0Iw'
p1462
I267908
sS'vKtMsWeAaThimXGo9Ic_Og'
p1463
I270312
sS'SOMIalSJTUb2yGCe4mhg-A'
p1464
I112547
sS'9BPYwkcrItZgnI9V0Cz7DQ'
p1465
I112547
sS'aIzx9R8MN9VgSSJt1jy5TA'
p1466
I208228
sS'djuIzefYQOCcjLJSF6ow3A'
p1467
I267908
sS'BcBxTyj09Wu-w0KA1QvKTA'
p1468
I267912
sS'UiWPs9YknUZk7R6POM80og'
p1469
I112547
sS'7Jmri1RCl9Ksmpi5EoIOZQ'
p1470
I267926
sS'RpIDCcLMZQ_PvBEi8rtFpg'
p1471
I276277
sS'Z0OGW8PysysRXE0dR7QxQQ'
p1472
I271162
sS'3CSaqRNvYg7ZdN2zwxwzVw'
p1473
I267908
sS'vctk2EKW16-ZTMRX4tMJQQ'
p1474
I267908
sS'SVI6dJhJCdmp6c-smgQ2dQ'
p1475
I272848
sS'JmEp4DxBEIrFD-rgbL8bvQ'
p1476
I267908
sS'VCQ3VvnVRhibTT8J61xWkw'
p1477
I267912
sS'q1LU_6xwefvSsxDXi3k9Dw'
p1478
I112547
sS'pSYCSXgabSKKJrIEJG-FLQ'
p1479
I343577
sS'PwVdZB6Oow9p5QoTKLU7SQ'
p1480
I270317
sS'2gMx4KnXbNtpoCuVCmyo3g'
p1481
I267908
sS'XRBTHOXaJK_AJ2wy5mX_1A'
p1482
I267926
sS'OOPBFViU0cl_GryJOEEUcg'
p1483
I270312
sS'vv1uvJRBUqi707TA5GuhCg'
p1484
I267908
sS'pX9kvDSu3mX1u8mm4_JB8Q'
p1485
I267908
sS'h3tDZ2TBw7w_W9bA2cR2DQ'
p1486
I274742
sS'KLaxBc83JnxyGf7GP7enYA'
p1487
I267908
sS'uBW3PIKqc-_eyG1_vdJn1w'
p1488
I273806
sS'c6sTwXAwIAgf2YQtA4ZWHg'
p1489
I267926
sS'lHKS896yFkmAuWyFnbNP3A'
p1490
I272734
sS'J8SO9szU8HvXIcLq8ogrNw'
p1491
I112547
sS'kj3qws3WSMgOotUeACSdFA'
p1492
I216117
sS'mnOTw4P5NaLbzFp2bTsm9g'
p1493
I275812
sS'FK6qrsEbxZ0uTdho9rIWFQ'
p1494
I273505
sS'sFbAWz8Y8o1h1G3KcNHjCA'
p1495
I273992
sS'BOdArlllgsDW1lqq4vJU1g'
p1496
I267908
sS'RnI6c_HrzEPS0okYj-BICw'
p1497
I267955
sS'rhxBsu0k_BddgjOP9MYdeA'
p1498
I112547
sS'OT0gFIAr_c-d3i-IQ6TZQg'
p1499
I267908
sS'jVVyiaDle64frINmX2hgqw'
p1500
I214217
sS'muCl5p-9ut1sY0aKeUeRhw'
p1501
I267912
sS'NH__LjpMPLOoWBVMYAJ9Iw'
p1502
I208472
sS'vBRJWnMaAqUyZ1CbwnJXLQ'
p1503
I112547
sS'6SxAOEXHzNjWQMQ9Nnos3A'
p1504
I270315
sS'e1OD-zIxBjJXPlnYQvhdpw'
p1505
I267908
sS'SG_gEmEXL4ID6RAEinC5Bg'
p1506
I267926
sS'Qy1UAXzY6qEr6Ive_lksvA'
p1507
I267908
sS'EF4UNFplUpjEEx9LglIR_g'
p1508
I276277
sS'BU41zQDIfo1YhiEXRMcNiQ'
p1509
I267908
sS'wWTPCZYLaKsDaNGSlao0iw'
p1510
I273505
sS'qC21Nl_OUfTr_xf8ZjzOcg'
p1511
I275812
sS'jmegUHThTotdwyebhW2Eog'
p1512
I273228
sS'4NhJV3Hw3OoTKbnjmIQ9UA'
p1513
I208472
sS'6eOtk-hsb6uz_5FTsb4tkA'
p1514
I270315
sS'9mwShpTgZofOujt4JfyGmw'
p1515
I216117
sS'MQnNtW1lHS-eid3QNUoUIw'
p1516
I273228
sS'QfCHvy6v39xPH7CvCASlFg'
p1517
I343537
sS'UMP4EbpIcKD4urk0qXbncg'
p1518
I267908
sS'kF8JDYpLnbf8AZS9gpHXJg'
p1519
I111818
sS'QOOj5_sIUwtlIIcqK4JZYw'
p1520
I267908
sS'xX0o2QJDELtcnLbzlEwhhg'
p1521
I273938
sS'F5-k-QxSGuK3oGNMknFFDw'
p1522
I112547
sS'Xxhj0sE85jLrpDmQTpn7tg'
p1523
I112547
sS'godQP1tNTRvpuLUOQlUURQ'
p1524
I273727
sS'tOXZrihuRjPnyJK_O6iH1A'
p1525
I272081
sS'e2K0YQel5Fth0_vur2dN8w'
p1526
I273505
sS'SYFDPIZSEfKS1Tc4vKKFsg'
p1527
I112547
sS'mVFC6uFv9iOH3ckSuZTNJA'
p1528
I267955
sS'11MER50CkgrVLeL64v9Okg'
p1529
I270327
sS'QlHQzegL2Ew3z5YgK0ZeOw'
p1530
I215515
sS'1XMLFsJjT-16Ki3hDiCGtg'
p1531
I267908
sS'DlLduXXSwjkm7OL4Z1iH1A'
p1532
I112547
sS'W0kwwRhto5fw8tURZ0cYBg'
p1533
I343598
sS'27TvEqTzHYqHvIvpdpx51Q'
p1534
I267912
sS'bsoVRCfwAEWQfSvujDy2oA'
p1535
I112547
sS'HmG9zkBtRwttGE291q9b6g'
p1536
I216117
sS'HTplzElel_F_U_qhWuDKdg'
p1537
I272087
sS'IvgKdlte_JNdd17XRxkOrg'
p1538
I276248
sS'YDCxBTJmF-lLCk1Qx8vDfg'
p1539
I276248
sS'UTVP8LlKPZlsSt72CK6h2Q'
p1540
I267908
sS'E3sONi8kCTBL96OjzpgBsA'
p1541
I267908
sS'gCQuajbLB3hQQbipYpEtYQ'
p1542
I112547
sS'zpNqsFrhLJlxAtPrSkbImg'
p1543
I274083
sS'ZLXZDgZUW72EKzmqqUo15g'
p1544
I267908
sS'wb3FCElK1qhnU2WNPLICjA'
p1545
I112547
sS'UgNGJhmwIDDQWfO2Fdo83w'
p1546
I274959
sS'7aGRXdKyjhAilq3XnzZkiw'
p1547
I111818
sS'zU8IfotOLryhaz5okWx6cA'
p1548
I267912
sS'6xEl2PDJulIp1PfWqa7-aA'
p1549
I216117
sS'YKQ09HGeV3_oiKp8NK7Zqg'
p1550
I216117
sS'R_eHhfFHeEs2nXQfTKt6Ig'
p1551
I111818
sS'xLWe6cylMsYl_TtmC9wlXA'
p1552
I276598
sS'hMCux7HZKRIN2mBXtq6WAA'
p1553
I267908
sS'vPW_d97PNUWNOy-SnPCtjA'
p1554
I267908
sS'-fIGHIUdHX-T_ZGh2IQz4Q'
p1555
I275454
sS'DXBPI8rR9f_IthOGPDWoIQ'
p1556
I112547
sS'Li5LOL873Ep8HoPRML18sw'
p1557
I267912
sS'7WS54imP0lFyAYklEFOPUg'
p1558
I112547
sS'4dt2i3TOZrA7wO1irW4Fow'
p1559
I112547
sS'WPy74Udv6X8dgxK6F9uxCQ'
p1560
I112547
sS'Qbt8Y1Ra3RDtHPUyW7no5w'
p1561
I267926
sS'-TIyxSc-lLmJzunje6MD9Q'
p1562
I267926
sS'OaABTKQcUvaT3Bqagq8gtw'
p1563
I274546
sS'1BUHiz05XHZOMLYZEWrGew'
p1564
I112547
sS'jmzPbvE_02SzTAjwZCTgYA'
p1565
I270315
sS'ZtCWak1Q65PiIvrRmo_zPg'
p1566
I267908
sS'ykfTh6HI219NoMsWBxulxw'
p1567
I267926
sS'IXBN4eEqgNNGFA15xCTMgQ'
p1568
I216117
sS'VTu63fFRaKQV_BgoU8rquw'
p1569
I274959
sS'TccRMp6gd1MgWy6hP44hGQ'
p1570
I272223
sS'rdYm8okVyFE53-cxp7zjEQ'
p1571
I111818
sS'rT-iPtIXMKj3dTcl87lbOw'
p1572
I273727
sS'OkPX0a9PUrhr6oNgE_FB_w'
p1573
I273505
sS'VJe-sf7dBY6GRGO6TcqzTA'
p1574
I215515
sS'7Y5HNCtQGCIP_28QfjfihA'
p1575
I267926
sS'sxeuOMBRllOHXJTaUlI9kQ'
p1576
I208472
sS'uzJ2Vefb951El2oneQI8NQ'
p1577
I343577
sS'sW75uX0kxW9b03aFa5upnw'
p1578
I273505
sS'PavTvJ4JSe9rAwjlr-wrsg'
p1579
I271208
sS'JF2vAMmV6GQBoQUgAfklBg'
p1580
I267908
sS'_UQyhHFYgTR1Y1ARgHQJNw'
p1581
I112547
sS'1_ksgP_VSwFx0yBUAV3T4A'
p1582
I272734
sS'x9pglBo0UYkfje8ugC1OsQ'
p1583
I343526
sS'TPcu6SzaW_lF5XUx8oSJxw'
p1584
I267955
sS'QnBchvawspqR_c8OPVzIIg'
p1585
I343517
sS'LUylwiKNsS7_iumytRgAmw'
p1586
I273357
sS'lcdAx1xsp-TI4vPIVEzAig'
p1587
I274959
sS'kHQCZ5UQmNX2KiSU5cUpaw'
p1588
I267926
sS'F6BedoYgbAQHqwKX9F0zDQ'
p1589
I267912
sS'jeS38QWMVkA6S-4lMi1Frg'
p1590
I215515
sS'uFJwKlHL6HyHSJmORO8-5w'
p1591
I267912
sS'Lmv5fvmhnMS3Jaob12kQwg'
p1592
I274959
sS'qt3WwxMYShshHX7UsyTK-g'
p1593
I272044
sS'G24-f72eXmV4xxjoVYY1Lg'
p1594
I111818
sS'oWeD5Nuv4S4dPF5BcuaAow'
p1595
I111818
sS'W25mXeVDTHBIXAidJrwHPg'
p1596
I276248
sS'hqVbmZNLTdR2y7G7oJu9vg'
p1597
I267908
sS'KH6stvNdq_aV0HvKw8P5yA'
p1598
I208472
sS'tCKXSlsoLawfhY-CfRTOwg'
p1599
I276502
sS'nRUVqumU_alE6eKeGC5nKA'
p1600
I112547
sS'7veXAvVLxdl1NK_wexBUBA'
p1601
I267908
sS'UWrB5H3G-hhiHMy3iKV2ew'
p1602
I272734
sS'yncbXP4MVT8Uxo5TUrFnAw'
p1603
I267908
sS'l8v1GHaB4CsryK6MioZ21A'
p1604
I112547
sS'_y8eyekXwuzPsNocfas5bg'
p1605
I272954
sS'NtRs2Xd64mRLe6jGUTXziw'
p1606
I112547
sS'tbwZdMyjjLXgUt0l3b7kxA'
p1607
I111818
sS'2QzMdxNZdwKo109BMtzvdw'
p1608
I273625
sS'6FECmOLQSICW1ykyBbEHng'
p1609
I267955
sS'Rg3INE2p4zQYvfMvJduEOQ'
p1610
I267908
sS'a5N-FJqNPOmhoTV5JkQrww'
p1611
I267926
sS'wlzaxTltayMxf-jYr7zpfw'
p1612
I267908
sS'JwjDSrMrKmHUXYqoIvTgUA'
p1613
I267926
sS'TWSxpbPBGD5FLRSFWjH0EQ'
p1614
I274937
sS'Cp6JGY5YIRncTV_My9nf9g'
p1615
I267912
sS'nEaJwY77drRqQkJqcd9LRg'
p1616
I267908
sS'UFhcxnTzfLO-ROftyP_ukw'
p1617
I210081
sS'0dsJ0vUHK9TQ9HurbK4BLw'
p1618
I267908
sS'G__4nBTpXdfM6Y_qS-vJyQ'
p1619
I274959
sS'LnZJGpt0nV9oVZqwYuDUhg'
p1620
I111818
sS'aqNwplp89UTe8dfGXj_yKA'
p1621
I271161
sS'wki-Qlp3OWgH0XtZ-Jz_WQ'
p1622
I267912
sS'yQ_Jc3o3ufJFzoImgMHxUQ'
p1623
I112547
sS'c_-u0KbQOh_lvuyc3z9pkQ'
p1624
I276588
sS'Wo3EwLR7i6ZY2ChKuH0YRg'
p1625
I274959
sS'w3RRGWhObLI0bLAJ4fsyKQ'
p1626
I111818
sS'UlY2l61fqYgOa1dvogNCRw'
p1627
I274959
sS'jcWWytqmzMK7gu5zOmxkYg'
p1628
I267908
sS'Ylef457BBvxuv7wq-20lkg'
p1629
I275309
sS'dgOqz4wODimYiQJcE8Uvdg'
p1630
I267912
sS'LtJszEtHhXMZR0y6lbdswA'
p1631
I267908
sS'sXUMme0o3rS14edjipVN0w'
p1632
I276598
sS'NHIWIA3g7oLZ5gW1tpjf8w'
p1633
I274959
sS'eNIDbboNe7W_rAnNHoveEA'
p1634
I273625
sS'QxcDx3UugI9y0NTdTjWFQA'
p1635
I112547
sS'rl2qJegS_rAB2vIxxKHftg'
p1636
I112547
sS'311yXufoXR2dFngMHS9MFg'
p1637
I272309
sS'nm6fSZhNrxbf8ZePK_X4fA'
p1638
I276598
sS'EBuOgJoDgaYCXbqugPTj6w'
p1639
I274959
sS'QMX1ssofSveU3qhVAKLnXA'
p1640
I273505
sS'1wIKHSHPOkywuOkyrXt6dw'
p1641
I275811
sS'y6dEkjR5FMP2h1L5V6pI4A'
p1642
I111818
sS'5CgGQRXx_3TA8WQiKEmhhA'
p1643
I267926
sS'_s26H0beFUVbzsBFkiuXug'
p1644
I275155
sS'Y68Ysab60gJhX7YBjESgBg'
p1645
I267908
sS'PO6gVnfmA-877zuw8n0auw'
p1646
I267908
sS'Q383iRdm4xwGeuLbj9Qjgw'
p1647
I111818
sS'HL64Ctb23JQQq3ZJ9NVNPA'
p1648
I267955
sS'T9l9Z3FKMSCIYvsP2g4efw'
p1649
I343577
sS'fZgPX61leB0UhzCWTNOBfQ'
p1650
I267908
sS'NkZ2mFONM5UXKQYc64J4Og'
p1651
I273548
sS'bUzGnA1XulTefupruxKmHA'
p1652
I274083
sS'5dn_3KLiTl2vVe8O91pJ6g'
p1653
I273505
sS'VtintYQCpm-KLWR_Ku9xEw'
p1654
I274148
sS'Y1ReKMzP5pl76oDUrheaBg'
p1655
I267908
sS'vWrXsnk4DMRUckSR1tMmXw'
p1656
I208709
sS'IxQ1ATP_Wg_QujO9nywzcQ'
p1657
I271169
sS'nuCgH96Tfe6CFXznvmKdhA'
p1658
I273228
sS'L2PpaD1BEW_zKCt5GRLvPg'
p1659
I267908
sS'STcLx0y_X89TsC0m2gVgHw'
p1660
I273625
sS'qmi1V4nUyXQu7SPflhzRSA'
p1661
I276610
sS'k8Y7aXXA8BFcn5CillHFYw'
p1662
I267908
sS'NTfUFk8GyOLL1uPbEO-pVg'
p1663
I273505
sS'qurW9PjV90saHESwsGAwdQ'
p1664
I272734
sS'1OO3fy6z5lxlRuHnnhPStg'
p1665
I112547
sS'PsuvqWNmLBU8ABkch2d9vA'
p1666
I267908
sS'DLvH3Ck9R8fO_I89maDNIA'
p1667
I274959
sS'-nWigG5EhFLjdSgGZthS3Q'
p1668
I267908
sS'siDnaOHe3LAnopFG6wMZGQ'
p1669
I111818
sS'VTFx4ADDP6nPnlcMHB1-Ow'
p1670
I111818
sS'lo3zxzq7lRdJ_Rs2QChP_A'
p1671
I267912
sS'kEqcAtMaC6hcY8Wbi1nxtA'
p1672
I267908
sS'rDyAYMl4kRnut0mruZctOw'
p1673
I112547
sS'BUL_RnfnXoOhMYvLUYJn7w'
p1674
I267908
sS'pkUj-lZb5ZEzLBw87-pOew'
p1675
I267908
sS'0OvmJ272j8qYwzDzrCR7wQ'
p1676
I274959
sS'147XyO8Dfmg2z9HWlLugZw'
p1677
I275811
sS'R6bBcQaHFHHpndTzMEHjXA'
p1678
I273776
sS'4OY51VjcxPKO6WGzRfVdVw'
p1679
I267908
sS'COkT6HcVRY8Ur2nRTYY5wg'
p1680
I272812
sS'mD17cvqdGtahSk6hdSCYoA'
p1681
I275948
sS'ZqCZMNfoHUMIqp3gf6NxFw'
p1682
I112547
sS'3OViesv3-RkPDyvdxW16sg'
p1683
I208228
sS'JTiqc8D0MJpYbnObHuNA9w'
p1684
I267912
sS'HFmjWB7IaZRtV-vZZXaxkA'
p1685
I267908
sS'Tb7hQ37UFA2QFaMwjFieQw'
p1686
I208110
sS'V5S43vHLhHxKCb06Jwa3vw'
p1687
I343519
sS'nV_7lAYFVISEs-Te4e39gA'
p1688
I272734
sS'ZEM2xQshu0KC-x8OhGhPdg'
p1689
I273505
sS'neGAQFkBNI8-rpPBLBzNkw'
p1690
I267912
sS'5GS5sBSscgcex0IFTDL9Bg'
p1691
I271199
sS'IgaruuknYwCr9afeDYQ_yw'
p1692
I267908
sS'xxSq7BBoCwUHnaxMMgF5mg'
p1693
I111818
sS'2bBxE8pEbLBETejCi_aBeg'
p1694
I271161
sS'uKNp1tdMEibbriPE9bhZKg'
p1695
I267926
sS'mzc0WLijQ-7Tx-GsOThS5w'
p1696
I270315
sS'1acmBPmmFDovVSHHzMrJ9A'
p1697
I267926
sS'24VeElGyFWzFz4DVfMiP5Q'
p1698
I273625
sS'4f1b_-ceB9S3olRqGujh6w'
p1699
I267908
sS'j1k5n2rKVfb08oEPvrbHkg'
p1700
I267908
sS'Fq_ihbYzLNXCRJwN6FUJNg'
p1701
I267908
sS'DkX3YoxhH4uADsgVgQThew'
p1702
I215515
sS'QIJa5h2d65Bgh82zct7c7A'
p1703
I214217
sS'5Js9G0axfWhbYlB9UgXLww'
p1704
I267908
sS'OejdaKwkMAHvNe5mL2-emg'
p1705
I343537
sS'3UL1To_gn_eOY5iFH5oBxA'
p1706
I215515
sS'1I8gEdZk3itKxzIejjG-aQ'
p1707
I275103
sS'tGy3GH47a4UdkJ0KsUPzYA'
p1708
I267912
sS'1n0n_-Iz0e3iVpH8sereiA'
p1709
I215515
sS'kzd7xOVYLFdXx6xDkaNPTg'
p1710
I272734
sS'ByctOq-Af6lAZxROXkXTXw'
p1711
I274959
sS'oQpq9f0HkS-_8RXlcsMiUg'
p1712
I267908
sS'gdzqoKQPxfl-IMTmGn6ddg'
p1713
I273625
sS'cIwMq5KNq0ASQzoTP1dE9Q'
p1714
I272734
sS'ybkWtM1ZnT2ewuquj3A9KQ'
p1715
I272243
sS'FvErv0XJnzDHx0nhT5HyiQ'
p1716
I112547
sS'42Ai9wcFPE2HZ_aADGXI9Q'
p1717
I267926
sS'YLyEGXEgh1qh8y4kWEsddw'
p1718
I267912
sS't6G02Vr20MCVks8V1P9PMQ'
p1719
I272812
sS'lquFtAcCRSpNYAN1qlxWhA'
p1720
I272734
sS'kMdlAVk6o8Ik_gO9U2yrQg'
p1721
I272812
sS'9a-MZdxZ28o4j1pXI22btw'
p1722
I267926
sS'WQJwpYwEFT_QTR-lFIh5mA'
p1723
I112547
sS'AkOruz5CrCxUmXe1p_WoRg'
p1724
I267908
sS'R0_OYFmEWgvwNTHaSgWKAA'
p1725
I267908
sS'a-XWQ4HyxJEctlowO8rXwQ'
p1726
I267908
sS'eOgUKCy5-sK-leqIBiNokg'
p1727
I267912
sS'98hOHm56D0Boz2LCg0-irg'
p1728
I275811
sS'IHAA-9CgJo970AjcMYB6wg'
p1729
I267955
sS'rYdzYIpVH_75GlHaj_ZfEg'
p1730
I215515
sS'LHyGQnuWR2q44bsrw1ZLAg'
p1731
I215515
sS'I-YxOL_SUAzkn7Yv8G9-Fg'
p1732
I273858
sS'QThlnQ7AvzZwXHKD5DjdCw'
p1733
I273505
sS'xLZilmaLXY0r-dBFaiLxww'
p1734
I274959
sS'UmFnmIoLCRe1ywY0bzpRrQ'
p1735
I267908
sS'y5ASfpFSJkC5ngVgpCMJuA'
p1736
I267908
sS'PTS4MxQel-xzj5qWxVn3LQ'
p1737
I208472
sS'9AwAmDwjNX_WUuhSdYTKQg'
p1738
I112547
sS'imSAkSzL5X1rUc3Z1ZMYeA'
p1739
I267926
sS'62IgG9jZKJG44AypLI-nuw'
p1740
I112547
sS'4R8uKEIwTVzHGLa3Edub0Q'
p1741
I267908
sS'NYBx4sdSVrN-I5Q8RfLMPg'
p1742
I267912
sS'XTe76gbHIFkPvHuaU4SS6w'
p1743
I267908
sS'FsY-8nYOCXyj9FoVxbjzTQ'
p1744
I271156
sS'-KR8uHx8mq-ogiFX7TITIw'
p1745
I267955
sS'q5Vz6JNAGDqAT_P1lB1jVg'
p1746
I112547
sS'yPfvOB63thP5t3pGZPJExA'
p1747
I267908
sS'3hR3J0hd4XU4uxMnJCw7iQ'
p1748
I267955
sS'A2XkbJ07hrR80t0EFgLikQ'
p1749
I271161
sS'90Fqfzd8zD9AuuNBSv9lAg'
p1750
I271161
sS'eC4iEcRR3p5NLq9Zf80ZGg'
p1751
I272198
sS'gQ3vh3Gyq6q48bdsrgLOyw'
p1752
I208472
sS'RjQw9mIJPp6QJAOXJhihAw'
p1753
I273505
sS'u4JL5Vw4_XI-4Zu6ZKcfNw'
p1754
I112547
sS'cTyBfWfmgL3vgRetyfmtyA'
p1755
I112547
sS'Z101WZaISochG6g7tI2ZVw'
p1756
I271199
sS'NITZJoVV6100STzn4WBfPg'
p1757
I267926
sS'-yB1gsnF4gROLFWzZEImzg'
p1758
I271161
sS'MTaaIqX7GJXdTPDDx4L90A'
p1759
I267908
sS'1Vm9rLnRDxJqdJDaqubIbw'
p1760
I275955
sS'g4Eit1EeeEGhTVik6AWYsA'
p1761
I267926
sS'sG3uLNA9Z0kCvi1ko2wePA'
p1762
I274148
sS'o7PnVUZ-QqRLclVtN6qBYg'
p1763
I275811
sS'5-X03Zc0nN7U5eoe8uFUdw'
p1764
I267926
sS'GRnEENQNug-VakiWaUJMIw'
p1765
I273625
sS'WNh5vxnNeWTwxotscrQ6vQ'
p1766
I213494
sS'cQx6Tbzs7zMWCbDfZ4PBJQ'
p1767
I267908
sS'0zj1T4Zc7l_dXZhO3U-nfw'
p1768
I267955
sS'F0GTuvM68Qcyx_o-xXAu6g'
p1769
I267912
sS'e1FXpFjUZT9yIZRkhrfNvA'
p1770
I273228
sS'psze2Qlw2_dEsFpDj0N08w'
p1771
I272232
sS'3IQSDaqbnqACADJWlXpRkA'
p1772
I275121
sS'iw9GICvKqbNjjRGk3JeIeA'
p1773
I272956
sS'ZVKGOqXX50DpO50a43Sd5A'
p1774
I276598
sS'6xNssycLITJzyBWuuLHl-Q'
p1775
I112547
sS'OYZOzzipfXdWrYe1A2zeKw'
p1776
I272243
sS'eaqJQP6bp7rQJQt5KqfvxQ'
p1777
I273727
sS'2TjSxQ2RzF2A2WPygUMNVA'
p1778
I267908
sS'njx98mAz3wuxrhRg0Qpy_A'
p1779
I274546
sS'CEjRGMhQiWCY3McyAsJMBQ'
p1780
I273625
sS'lLI8ObL8aCVbkrrtAW0EHw'
p1781
I267908
sS'ZBQWSsUXwixFmm3lpegMiA'
p1782
I270315
sS'ifWq-CBwE1LzC2bQWEKiKQ'
p1783
I267908
sS'jr8D3lu1S0-eRpIVxkKnMA'
p1784
I273858
sS'lXhrVkDUsSHebKa2Aa0EYg'
p1785
I267908
sS'pCvl0km6v3Imcpq5UV_-UQ'
p1786
I267908
sS'HvQLLIaGh3qqXsuf8O7k2A'
p1787
I275101
sS'xH5axHFadmc7Veutt376TA'
p1788
I267912
sS'NqmdaI1GX8LOTRYlMGlTsw'
p1789
I216117
sS'AJONCMi8dnGWAkD-86FK5A'
p1790
I267908
sS'my2eEiCRvzlDHW-iyznVvQ'
p1791
I275811
sS'JD04BlA142xkYsPTErQOrg'
p1792
I343537
sS'qOE7oX1lIVUJUYvSwFy5Wg'
p1793
I267908
sS'jYsa5qLFZxhVtwDHZMW-SA'
p1794
I267912
sS'_X4onMscIcbmDNaY92octg'
p1795
I267908
sS'PntAGv15gHebFYtvMzQJrw'
p1796
I112547
sS'ZNBOViVvPIpz19j9WWWMpA'
p1797
I272734
sS'W8WyVVxinyRjzP8gJa7ILg'
p1798
I267908
sS'j6lFIUDoQrelVbgOe53u6g'
p1799
I267908
sS'Ec16pSB80VFjjO-8cueB0A'
p1800
I267908
sS'xwQZW0571-QzEpQ4OjcC5g'
p1801
I272812
sS'Y31J6qwqQoVL5kfu6z70ag'
p1802
I267912
sS'9dvuzmf1oF122Y4cZepRVA'
p1803
I267908
sS'nh9UOEccNSNZkCDtTWG_2g'
p1804
I274115
sS'dUTQIs1SMymII0-frGSZdw'
p1805
I267908
sS'BESmH-lmMm34_EefL8X9fQ'
p1806
I267912
sS'j1ifL5NXUSaLj9fdaTWDQw'
p1807
I273505
sS'Mq4W0508ZwUHN7nWND7dqw'
p1808
I267908
sS'CvJNcUtmNubDF8UmuduNXg'
p1809
I267908
sS'S0M3qwJLWhmIcrwc2HBlrw'
p1810
I267908
sS'wrvUbMS0mQnWACD0gcaDxA'
p1811
I273548
sS'9sbzIygDtLcK6KMrTAr_Hw'
p1812
I267955
sS'beSNHSvR9kjE_5vXJ_tlfw'
p1813
I111818
sS'rKe_bNOK1VlSbO-A6m0gvw'
p1814
I275735
sS'1hSfmvi1Q9leNc8N6NhfAA'
p1815
I112547
sS'pbuSIs6lEKkDpFCQbpOcbA'
p1816
I273029
sS'wpFOZbONc7qUYz6YmBfKuQ'
p1817
I274578
sS'Dj3i6a_vboALYTRKTmBABQ'
p1818
I267912
sS'HRMxVa2pjBc1ACCo_G96Jg'
p1819
I267908
sS'7P3ECWrdSepztN5A3boTmg'
p1820
I267926
sS'Ts4xsKPU7FNPPZRj-nRjIg'
p1821
I215515
sS'5UxCrCoS02vFlSKH0pZ-fg'
p1822
I274318
sS'PsO7ilfx0aA9SgcAqA4New'
p1823
I267908
sS'J8KPmc-L18N9RiDGFJ5vJA'
p1824
I112547
sS'-rv0pTYYKJQFRc2yH1KCPw'
p1825
I112547
sS'ieYiA4L5gk7S3kZYK0l_dg'
p1826
I267908
sS'kxDGexkbP30fBvxVI0CzFQ'
p1827
I267955
sS'df7cda6f5lMADGnoVHd8pg'
p1828
I273505
sS'FzruBSWLZnLK6QyDB6_jgA'
p1829
I112547
sS'M1JsJtmRFczX7Nfv04JuzA'
p1830
I276598
sS'SeSmcvfWQxj3PKiizxkdQg'
p1831
I267908
sS'4KJhRKocVPhrkdQQX2KVCw'
p1832
I208110
sS'fhmKIPGVx9_O4P9zEgCHjQ'
p1833
I267955
sS'Z7HNl4Gz00cA0_wt0S-vSw'
p1834
I271207
sS'IKUVWL75eSoC71G2fBphmA'
p1835
I274959
sS'qZ1bDtcercwUw4w7trpVjQ'
p1836
I275811
sS'm-yfs3tlXTP-wYcb_rEQPQ'
p1837
I267926
sS'fuFnWpP7-vkcq7LR6E7-aA'
p1838
I274082
sS'ZPDeQUjsLw9ycAbWFWxedw'
p1839
I267908
sS'hCGPFJjKi6RXlfR0asxA_A'
p1840
I112547
sS'Ump9ZR6bsyXnHgxWCxcHxA'
p1841
I271219
sS'utyqO_IVBAN8ULZmi52XaA'
p1842
I273505
sS'PyKQJK7ibQ72mWYbyNL1Bw'
p1843
I267908
sS'9eg9gDW1uVmyL40MmAQL-Q'
p1844
I276007
sS'hkWqMBArnp9wCJyhWZMwrw'
p1845
I275812
sS'7ijQJV72aBrEoJCtTBCHxw'
p1846
I271161
sS'lgWe8lSmcBk4Pq0kVI9-0A'
p1847
I267908
sS'zxodsuIjtv3kx8mNa3sptQ'
p1848
I273776
sS'X8dNaEFH7LWDt1ORmkfDTg'
p1849
I267908
sS'Xs7mmiB8DldSH_hye0_nrQ'
p1850
I267908
sS'vkRkOMYbVzadNJlOlTJxKg'
p1851
I267908
sS'1iP6SyuWpm_4E6Mx6zOS9A'
p1852
I267926
sS'JcjuBWVWWtMWYPR5avA6Sg'
p1853
I112547
sS'UFvogJEUiLSJwyx2LSz2uQ'
p1854
I273548
sS'Sy-hmzSH1OmWpHmAfZtxRA'
p1855
I267908
sS'ym9QwkmB5ZKTyj7q5huTDw'
p1856
I270315
sS'4CPrhBc4Ado90fj7PG6jrA'
p1857
I273776
sS'vIXUw1cLG84-m8LzOg3f-w'
p1858
I270315
sS'VsO_rhXi5lgbaGxNwoEZsQ'
p1859
I267912
sS'XeFNQqz5vVsVIcTjNuXcTw'
p1860
I273727
sS'IlE4UouTsBEGiJ_bNrb5ug'
p1861
I272309
sS'YRJKTPc7Tkz1cbjGHmOHuw'
p1862
I267912
sS'MwmXm48K2g2oTRe7XmssFw'
p1863
I267912
sS'OPUnaTRk6Nyv2QO6l2sa4w'
p1864
I111818
sS'EUXT1vSFWaiD_BFmFK8rBg'
p1865
I267955
sS'U2hhSRVHfBryKPNTgasprA'
p1866
I267908
sS'VkAqGYd5TOMgO4yXo2fjuQ'
p1867
I275812
sS'SMIeQELrm91pYo_1OaO18A'
p1868
I111818
sS'rg1-6A-8SKXGh_p-Abbyxg'
p1869
I275811
sS'XThGLVVN4oVybmv2gFS1Wg'
p1870
I267908
sS'5fWOxo5CxpHoaCJD97QE4g'
p1871
I267908
sS'bNoNEiN9FROI-f9KQr25Lw'
p1872
I267908
sS'PIBkZriPXTXGIUmbUwNkVQ'
p1873
I112547
sS'y5UC_QO9hbTWHohDYM2Fbw'
p1874
I215515
sS'AkMcOAa19PBc60ErzH_prw'
p1875
I267908
sS'49nxzKLr2qQnLF58qo2p1w'
p1876
I216452
sS'I117Heo3s28G07z-NGZXbg'
p1877
I267912
sS'A5V8qb8RRM5dI8cizPDhGw'
p1878
I111818
sS'iBQFyx_vq7mYr5i3BSjCFg'
p1879
I273548
sS'6Ckmrpp6OW1pJ-3Pjg7VaQ'
p1880
I267955
sS'X7VdashktoAExx5ksEBLXQ'
p1881
I274115
sS'--UE_y6auTgq3FXlvUMkbw'
p1882
I208472
sS'e5J3s-xxs1S6PPHJhldBEA'
p1883
I273727
sS'QfsO7GHhBlgOOYwDEVumkg'
p1884
I112547
sS'wfCLz9-aeShbPB7CaTY-qQ'
p1885
I215515
sS'8tBfgYCI6Fz9xrSYCYCYXA'
p1886
I208110
sS'odhXwWaYZvD_icIN6f_DbA'
p1887
I267912
sS'qib8Pu8_auDKPMBm8Ac89A'
p1888
I273548
sS'yyGUXEedjBEnDM30_fUVRQ'
p1889
I112547
sS'YbtkXw0q6N31wGoumIFIzg'
p1890
I273505
sS'rLAeltELaGdQKh_LYIllEA'
p1891
I267908
sS'2ZnCITVa0abGce4gZ6RhIw'
p1892
I267926
sS'35fKolVRrf2ulODyHw04cQ'
p1893
I272734
sS'93UCt9OgWYmypZCpXtUu8g'
p1894
I208228
sS'aToxIssFRGDGsTV4yJ9qbg'
p1895
I267908
sS'MfysRyJZDI6Q7fHy52g5pg'
p1896
I267926
sS'3xdV-7di_YD3MVqs3Pa7-g'
p1897
I275812
sS'VKxn7zmp8nOYT-ZHFZTjgA'
p1898
I267926
sS'R6aazv8FB-6BeanY3ag8kw'
p1899
I267926
sS'xI6crvf1e_3et61Kjf-WDw'
p1900
I272894
sS'jbUu0Mtu9QUjyyeOn6RIHw'
p1901
I273727
sS'kjZJsF1juY_pTOw_A8Ve6w'
p1902
I267908
sS'q52H04woL1Oy1CVrUQu3bg'
p1903
I272812
sS'f_e6RWJIERK708E4Cod1wg'
p1904
I274272
sS'CBwfqbMvp-_l9Klx1wra2Q'
p1905
I267908
sS'o48jFYLzay_BUE4vRn5hPw'
p1906
I112547
sS'6L90QJuEsne3gSEJj1I6Jw'
p1907
I267908
sS'kv-luwyaJYF3yCk2__-27g'
p1908
I272848
sS'ALp3FDuMkMxiBfF4mKewUw'
p1909
I267926
sS'4WV-YZWhZRWllHeA_-BRjg'
p1910
I275112
sS'nHEcQdTfzaaBLIYf6BV3hg'
p1911
I215515
sS'XY3sN_2uusMSU9i1WINFeg'
p1912
I271161
sS'zpTHs8AqhDg_uKFG4MeR8A'
p1913
I273625
sS'Kro5LncwNKtp3ozb8DVvng'
p1914
I271161
sS'fLkKbaWibWo6eaA4SPfrzg'
p1915
I267908
sS'2mmxmtwEli9CycpLcVpZgw'
p1916
I276610
sS'pmikYgE5m0MblL6vl49GQA'
p1917
I215515
sS'UlShIstbG4Yfh0MpTAEciA'
p1918
I267908
sS'ScqZwl3BDX1BOuihH0I0MQ'
p1919
I273505
sS'dNnAhFjYuVAo-tZq5Nov-g'
p1920
I274082
sS'z9fS7U8427JXd1tkXcQSZw'
p1921
I267955
sS'lgyBsM93DBchuwU-_l0Sfg'
p1922
I267908
sS'e0B-vLvKxGiGV_pTT7vwcg'
p1923
I267919
sS'sInUSy63Oh455uWs9p9OqQ'
p1924
I267926
sS'QsV4oVnoUVmFlXqdDMt6Kw'
p1925
I267908
sS'zTfBa__ldlTdbVgSl5h31Q'
p1926
I267955
sS'azyhZNRrV1BwIqxRhWqVaw'
p1927
I275811
sS'05wYcQouBrRjxC4tqq1cug'
p1928
I343518
sS'j43AVGhTlo0daQi_r4_8iQ'
p1929
I267955
sS'reU2VaO-QvNAyCZEyxHMBw'
p1930
I267908
sS'sS0CSU89WwFtOiARbckgbQ'
p1931
I272734
sS'9vZ2G7kW_8APo3snijBNaA'
p1932
I267908
sS'-ev01HlCKf7CYsh8ZXG_7w'
p1933
I267908
sS'7K-uRX-Dk65rjF_CkdmHQA'
p1934
I267908
sS'TBdnhn__fziQ5MJrHIhZbA'
p1935
I267908
sS'pRyooCFH6aM2rQ1Y8VEZyA'
p1936
I267955
sS'gFT2yXDXJ1qfuGOSfSU5Bw'
p1937
I216117
sS'flUKBy7WHqYdfOrwU1A2SA'
p1938
I267955
sS'Ku9PGxJPWFPotM1wOTVCNA'
p1939
I273785
sS'_rs78wcoHLfcHEgWoRXDYQ'
p1940
I275821
sS'p1W5b0PVWP0Y-ANLmN0wHg'
p1941
I267908
sS'ikq90EnoncDpb8tMx_kgVA'
p1942
I267955
sS'L1OqlH9UzjBK0js4sKs9cQ'
p1943
I273625
sS'Lm_mR5xDF91OeZw97ch41g'
p1944
I271161
sS'CnQpjJ37QT75YA_OAzqgDw'
p1945
I274959
sS'g1IglHvNZTSAO3u6MR5Z2A'
p1946
I111818
sS'_IE5XDjxeM47NSzhg7sItg'
p1947
I111818
sS's5HAJmxNrWjQv_MNLHAMFQ'
p1948
I267955
sS'L9D9xHVgCo71ZoO1ZBGOsQ'
p1949
I273625
sS'wls7FRMgIn8VlK1ji5Ms5g'
p1950
I343519
sS'9zJbULB6K3nbo-2N5cKy9Q'
p1951
I112547
sS'erFGE9ZlnVQ7Hz1cido6eQ'
p1952
I267908
sS'rO1BrNjNKcbPlyAdhjGTiw'
p1953
I267908
sS'kpzkZp0anbXjnIVI1hYpcw'
p1954
I276598
sS'KLYI39LFvsPzS_2-j9qgIA'
p1955
I273290
sS'7fEuPnwHDdt0dYXiBPONFg'
p1956
I267908
sS'MBLOaMM3g4TrLNpHUA5EtQ'
p1957
I343509
sS'9D4PMia-8WqCYXnr7TM0Pw'
p1958
I216117
sS'BBcNrsJ_KONXnBno2etaug'
p1959
I215515
sS'x47G6sczkXeH6MxgslS31A'
p1960
I111818
sS'f_EJyhmr9KpPssLsfw_IXQ'
p1961
I267908
sS'gERW5IQPZyPz7TQvKus1mg'
p1962
I274310
sS'7BVCmaxhvXgEpx7J-SQ4QA'
p1963
I270315
sS'G9LwkTSdKOyOGqd5BbuIkA'
p1964
I267908
sS'wPhkVdtAzJULEaNtiH9dHg'
p1965
I267908
sS'HsJiTqIjUqI-t1bnPFcp2g'
p1966
I267912
sS's8KRwTTrQDSKrS3hOjwYLw'
p1967
I267908
sS'UtWJ8NGMg-3z28s0RzlUoQ'
p1968
I210081
sS'4w9H2wnlJvNybwovZou_Tw'
p1969
I274339
sS'OLFRe98ESspsAr5QjG2lrw'
p1970
I112547
sS'RMcSaSsKiIRTO-OO-6kW3w'
p1971
I267955
sS'UzMMpUFwJhwUkHOyeXeWsQ'
p1972
I272954
sS'M89_KGMzLmdevtAlC_Ufsg'
p1973
I273505
sS'DEEAiq6dqVU8bvtC7VXztA'
p1974
I112547
sS'yzdBzVJ5nMflHwTH0MJzOA'
p1975
I274959
sS'fjaQ3Ixkofh8xGhklUtDnA'
p1976
I343577
sS'PTkChuI3GPCw-ZL1Iph76A'
p1977
I214217
sS'Og03_vbBCVAFNHXgdflRLw'
p1978
I267912
sS'G1Nh54Z7RIOZsyKrYa3MFw'
p1979
I112547
sS'1h3jthnriS_8MjhCTikVZA'
p1980
I275112
sS'x8WoC_7WHzXNmt6J13Nbvw'
p1981
I267926
sS'7Fz9erOfr76ZwIXX-z4HZQ'
p1982
I112345
sS'ZjCUvsuV1O_8TgOUfDnTPQ'
p1983
I112547
sS'b5pTNThgyflxz7K_v1mP_A'
p1984
I274078
sS'XfQelffgasSjLr8DeyGqHw'
p1985
I272734
sS'z7F5NHgN1iqSaNDbADhvlA'
p1986
I267955
sS'0TvxDhCKPQ-_dDyffEnJQQ'
p1987
I214645
sS'3IDt1SaDYwo6QKKV7gsuyQ'
p1988
I274082
sS'dLwTMpf63CxWGFRd8KqxEQ'
p1989
I267908
sS'ExlZlR7cndG_igbgBtw45Q'
p1990
I267908
sS'3r8xc7tYfRsK6-wdf8knlA'
p1991
I267908
sS'4tMGXYHN_0o0B6mnuYHhmg'
p1992
I271161
sS'jHte0SjUldZeDDZ5py0ZhA'
p1993
I267908
sS'41CXLCeB8z2oNdIOvnrzIA'
p1994
I271184
sS'pvg5xoIdgXUTspWs8GoCOQ'
p1995
I267912
sS'QplY4p8HHJY0ncbgcpb8WQ'
p1996
I267908
sS'ytyY71oJ0NvT1ekMSuOdIQ'
p1997
I272954
sS'PMWvH-nCrgt5gJigQ4WZdg'
p1998
I184371
sS'dUPQl5AAXClWK6joJzynHw'
p1999
I112547
sS'9fxTX1uyyYF4ugx68AG2sg'
p2000
I273505
sS'3RUAaZUyAf496YVID7bi1w'
p2001
I274959
sS'K97g9dp2rcm41Pq8Hfv9Tg'
p2002
I111818
sS'Owf92VOfdcR50P44CjsGLg'
p2003
I274743
sS'dUJMmr6TFrHmiokijXiyUg'
p2004
I267908
sS'R03p_2AxXpNtM31lutbnkA'
p2005
I210081
sS'giv6uBI98vnyB3rVi0mM6w'
p2006
I276007
sS'OoHWabV-ym7_HWlHeXTsVA'
p2007
I267926
sS'G_Ytz8gKasuDgfRPQ4LPDQ'
p2008
I267908
sS'PzMU15mDNyXeH8p4_qm9PQ'
p2009
I267955
sS'xiwuhksUyPmLwiZY1Dyqvw'
p2010
I272734
sS'bPq5y7z_DNewJfyjsiZNYw'
p2011
I267908
sS'TUJTT3Bvw8hGwWgOb1AHfw'
p2012
I267908
sS'Tfysaq2SdZAc5_TyPpuyLA'
p2013
I215515
sS'Px-EjhtV9XJcEs1ty4giAg'
p2014
I215515
sS'GSsq_y2PfYBzn51gAG_c7Q'
p2015
I112547
sS'HYFwjbK7HbvzENF44ACfdA'
p2016
I272044
sS'BdO3fRKops_wgmUPYyLGDw'
p2017
I343577
sS'BT2Vls7h6sWrCKa5gGXbKg'
p2018
I267908
sS'U33KOqdV7KCskgu7LGcSWA'
p2019
I273548
sS'0-KOpYSe9aQTAfM38f47HQ'
p2020
I112547
sS'Z6w3hzRxdp90AkNyhvcR_Q'
p2021
I275121
sS'z4KtKRuuwU6eJAI68ChE-w'
p2022
I276610
sS'gDFNqSgiwrqCjXlsaNdfKQ'
p2023
I267908
sS'aX4uzK16fG9guQocVVwcWA'
p2024
I267908
sS'chEG45Z1NFLgsJKFZHiYLg'
p2025
I180349
sS'vBjQ30CZcqzpTaCxeJgwTA'
p2026
I112547
sS'ytcm2DXuJWKPTqCtr6uJ4A'
p2027
I267955
sS'2dJ_UPPCpcjo5JeYPnjaYw'
p2028
I267908
sS'i73c64_jbNWEYHVXIbNlLQ'
p2029
I215515
sS'xfk9eY8gmwn8qsbyd-W6lQ'
p2030
I267908
sS'BMkistbXA4DlMrAonp2V0Q'
p2031
I267955
sS'CDH2dyRcJUDPM1xj4AD0lQ'
p2032
I273228
sS'Lgyc-00L5pAELhjwUjAz-w'
p2033
I215515
sS'5Tc2MYU5YO35JYW6fh1eaA'
p2034
I215515
sS'2PfavOTufsPCRdYm-bFcpw'
p2035
I271217
sS'9SPwF-vRgtuHxciFxv5YLA'
p2036
I215515
sS'0tHI0-PzdFW7b9z1AJ64HQ'
p2037
I267908
sS'CChwRoYVXA3QZulS8a6xOQ'
p2038
I270315
sS'qvVmQB0E1VI7GNX-MhayPA'
p2039
I111818
sS'wrmZqOF6YAE6Dw-QWAoMLQ'
p2040
I267926
sS'376PDtBpGi74Os08TvCkhg'
p2041
I273505
sS'pNJhovUsGAZ4XqG3lCU-5g'
p2042
I111818
sS'UvuUOiP0oIgJ2H_8J6h6Zg'
p2043
I275811
sS'l-OmDgEd4QkZpyXVpkp2yA'
p2044
I271161
sS'ib-y5nsfn3unE0lLY1vfAw'
p2045
I267908
sS'buVALudg30kgkDusqB3yJw'
p2046
I216117
sS'Hd41eA04_N5BAWpv3iG57g'
p2047
I267908
sS'd4t1qlm-mjhBmDUdboq5Uw'
p2048
I273228
sS'74NT13vpDleoNrkxQdEpsQ'
p2049
I267908
sS'BldRwejVG0trXqQOJiQT8w'
p2050
I274959
sS'rdc24noiVveKlfifEwVNvQ'
p2051
I267908
sS'r5GJ2rg06tSCdaN_2aKEtw'
p2052
I112547
sS'DiPbxquQQHSgz123I27Drg'
p2053
I208472
sS'j0Uc-GuOe-x9_N_IK1KPpA'
p2054
I267908
sS'Eq_T_rOK_XmOEpcfHdpzPA'
p2055
I112547
sS'RCT5joZdjoJfEJOh7__x8A'
p2056
I267908
sS'peA3F-PnIfijYr8HuG-A-Q'
p2057
I267908
sS'w8N1BIB2MiP53PM7ouYPQQ'
p2058
I210081
sS'bZcqORBnVApUA2-SEn7VEQ'
p2059
I210081
sS'Pv1H9KIGZTDgSaCDuTUjdQ'
p2060
I112547
sS'9Tz4w2tmLmcf2gZnqjMxxw'
p2061
I276007
sS'wan0X-oHpLgGTPXqaICZCw'
p2062
I208228
sS'dpRsK3JyaD3GKorVWzQUmA'
p2063
I208228
sS'1AuFwptM7GER1R4eu08xKg'
p2064
I267912
sS'WlIXozffoh023o6cUmOfjg'
p2065
I111818
sS'74dAKJ9Lx0cYmb3GOxdFEA'
p2066
I275811
sS'NKDeqe-I2dD1MAtumoIyYQ'
p2067
I273548
sS'vMCCvnDU-Iz_D_pmbcMqzA'
p2068
I271169
sS'mXHBxHrAJPnPWnm_OKuZTQ'
p2069
I208472
sS'eMFD4FA8NVAlUAeBl4EVNw'
p2070
I270315
sS'e_kbfiEZ87L-ZryMZxvJkA'
p2071
I267908
sS'xj8DjQHs8E42wGMJ2CmXxA'
p2072
I112547
sS'aOtx6bMU5M-Q_cNxhB0wYw'
p2073
I267900
sS'sQWSHCIH_HUT4HUXaxDaBA'
p2074
I215515
sS'qhLHepVj96lkk2UTejefaw'
p2075
I275309
sS'z4cguIVh7jL9tTPf5EqRcA'
p2076
I271161
sS'zgobrpk3RbFz6o2M4uSl8A'
p2077
I112547
sS'LDtE3rhFnl4ud1ogxS6rGA'
p2078
I267908
sS'cYKMom7GWD4qOJVSAo5NZQ'
p2079
I274546
sS'nDJ9Pbt0RF6iXLgVzGyC3Q'
p2080
I267908
sS'MW0EsqEBHmasU0vHYhRYcw'
p2081
I215515
sS'-TSFapUMwdyyxoi2egkOhw'
p2082
I271161
sS'Oq5MyNxNi-xuXdPOWR9O_g'
p2083
I215515
sS'nUISXnW2Jo9ovnoFBIUY_Q'
p2084
I208472
sS'7UTlEVHU5v2xBLdkGghyzQ'
p2085
I267908
sS'M-4pyUDq6jWwDvvoQTIS-A'
p2086
I267926
sS'QMZe84KFyZy0IlCBb1v91A'
p2087
I274959
sS'YRDKsBFYP7G0E8BLJKIkvA'
p2088
I271169
sS'Mb46iSlA4qmTwXf-WrqtQA'
p2089
I267908
sS'vSZDiKiF8vf9zt_BcDL7GQ'
p2090
I215515
sS'yQONzVpX-DEpGSuKMIov6A'
p2091
I267908
sS'_JFJMiT1xo4A-F0LiG_0WQ'
p2092
I271161
sS'oXaIwYLi9mzUxcYde9rDcg'
p2093
I208228
sS'-1t3U6osBvqFLHseoCxiIA'
p2094
I273505
sS'BjJHiEjwELsXIXshAgnqUQ'
p2095
I273505
sS't30Ua_mSiClnpBqud84ygw'
p2096
I267908
sS'mUMikdLRJxeet5uWWGQeZQ'
p2097
I267908
sS'9y0Nw0nO7-plxn3mY0k1OQ'
p2098
I267908
sS'BSGcS1EWEkGP2LS1nOZGPA'
p2099
I267912
sS'424HyHMwienlGfTp9Bj9BA'
p2100
I267912
sS'hS1ShVIy8qLrRv9VXFFcww'
p2101
I274989
sS'FPYLsdwADbnpDrYgphI1jQ'
p2102
I208709
sS'yOBSLOAzQYmWltPbKNl8aQ'
p2103
I267908
sS'MPziC5MO2QQiYVAMM3fdSw'
p2104
I267908
sS'werWnE_3k8GYVaMuUcWw4g'
p2105
I267926
sS'pcRVuHC1RXOkLQJ_haePGQ'
p2106
I343518
sS'LW65ExGoIf0PKYfuTATN2A'
p2107
I271161
sS'2ptpFyH6mmTaAMDH3IBNFA'
p2108
I112547
sS'f9WqdqHuZtwg41HDLSKaPA'
p2109
I274148
sS'2J1DtN7FjGICQcgRei3jKA'
p2110
I111818
sS'DhDNNHZtaBxYNSqJz64ixg'
p2111
I271161
sS'i2CtyEZiC_164MdfWjdwsg'
p2112
I343227
sS'MUsqPXthMdHoPEow9M3MfA'
p2113
I267908
sS'qam5QKFE2a8MQBkxznrr3w'
p2114
I274148
sS'LBCu6fZIcsv5PDFXOOEodw'
p2115
I112547
sS'ON-DoD4En7AdUIXVhTG5hg'
p2116
I272954
sS'9zjSYbbWV5WHt-Jl7vE1Vw'
p2117
I267912
sS'gCaccP5CxQn-j2KCNbD4gg'
p2118
I267908
sS'5FlmcwCLqFveKQ-GVeolig'
p2119
I343518
sS'pF7uRzygyZsltbmVpjIyvw'
p2120
I112547
sS'_JGqL8Cyqmph3dZeiLl4tA'
p2121
I273643
sS'zXpGuJBWnH0idWXLlLc7Qw'
p2122
I267955
sS'lgWOnPbDjKrpa-hhugGZGQ'
p2123
I267908
sS'oZ5ajWJBFG2HkfYoT3brvg'
p2124
I267926
sS's87D-mtAuJ8BluKgYYsXGw'
p2125
I267908
sS'oMmTeuxyY-wFEstvXCOKaQ'
p2126
I267908
sS'jnzSNWoOjBityIjb0tZRSg'
p2127
I216117
sS'f9WABGuw1OBfO_lw5HFiJw'
p2128
I272734
sS'JIV4LF8KE8pAUnU28QAhIw'
p2129
I267912
sS'VilxIfmahfOhMcIaGK8Www'
p2130
I272734
sS'JKKQVd4gFpjUadY35qntlQ'
p2131
I273978
sS'u8bQvtkVa5lW-SNwRLH6Vg'
p2132
I267908
sS'fNEwA3uXDjCWq686qQbXuQ'
p2133
I267955
sS'l_1cKvlK7KwuUHnf6i0o-g'
p2134
I112547
sS'l_Wey2YC6NvVUIH8vTygGg'
p2135
I215515
sS'yPHi7eUbme52mkkm4bVavQ'
p2136
I273625
sS'bhDLap5NOnszfOOrmrxoFQ'
p2137
I276598
sS'gUt1OMval0UORqUCZomPjA'
p2138
I267908
sS'vHPLcor3dPQiT7svYNjy6Q'
p2139
I275811
sS'S1q51o5JqD5rzzDq_WD5_w'
p2140
I267908
sS'dQjaHoo89bLymdMm4S5_1g'
p2141
I208709
sS'g6ygZTK9TTI3CsSTKUkPlw'
p2142
I267926
sS'T4D7wX6GuCYChwRmser-0A'
p2143
I208709
sS'R825-NTAI2wG2C4mN-dtNA'
p2144
I343509
sS'cjUmPLRT43wN9Z87A9BOpg'
p2145
I272734
sS'5HVmR0I_MUcpwKcne8zfBA'
p2146
I112547
sS'zq--BGVHu7_fb1VHEwg2ow'
p2147
I271162
sS'2bZk38_vJCkAVI0f2TeqZQ'
p2148
I267912
sS'cMESoZkB9LII8SSoea3cbA'
p2149
I276007
sS'9Dj2we91vaYDVhfq6t-Luw'
p2150
I267908
sS'4zNHoYzEkOPFUGmSnZ-ocQ'
p2151
I267971
sS'P9aM91bY6XHOY9ZfaLUYqQ'
p2152
I275811
sS'AoAHOJwSGS6xg5dM0GF2Vg'
p2153
I273138
sS'LVbQSxMzqY6ZiV7oRz710Q'
p2154
I274914
sS'fp-tknN_5XBmhUS4fSJBgQ'
p2155
I274272
sS'HCPCq7q3iiYkQb5tDLfCig'
p2156
I272734
sS'6JOIiBIroaDLkUrj2hR6-g'
p2157
I213615
sS'dYW2bONI4ctcpc7d-Wk9Vw'
p2158
I273548
sS'Jf-FUvn6j86oPQhKNIHFJw'
p2159
I267955
sS'rHtkiJVIT-AFexNcEQ1vYQ'
p2160
I267908
sS'2h9LsLPdJ7OvZrYJZhVdAw'
p2161
I267908
sS'Xhl9kV7_GtZdaVHJXlnucg'
p2162
I267908
sS'2sNSF2ttXEQKV7gADC6-Pw'
p2163
I215515
sS'lfysf-HycrQ7Z02HuPqgKg'
p2164
I272734
sS'LQQqKGkTnzFPqpCmeNJS7Q'
p2165
I267926
sS'-raHHPz6kBnQgBH-oCuDFA'
p2166
I210081
sS'xaWje-dMVpAEQQMKv9556Q'
p2167
I267908
sS'XAaXT0e70-USVYVKcnljsg'
p2168
I267908
sS'FltN1Hnw4n7BORXJH1kaeg'
p2169
I267908
sS'DzZfyKpQTNzSFGFSo3HunA'
p2170
I275812
sS'jfKQHfwKmeLXnwAdbzgxZQ'
p2171
I112547
sS'ShlpOxmjFOeiuSdUMVQr3A'
p2172
I267908
sS'8mNg1i5vb3FL_Ud5-SflCA'
p2173
I267926
sS'ZL4N0P5ogHFyD-XL06pDTQ'
p2174
I267955
sS'f9eDYb3FXVdnHuOPrxpilw'
p2175
I267908
sS'I9S-4czHzMVfKejCiAuXag'
p2176
I273727
sS'_ijt__7caVfMxwLDQyDJnw'
p2177
I273727
sS'_DvzkmN2HbM9jTAjB47PKg'
p2178
I272223
sS'RjKgADv9_lVtV4xtFjeDDQ'
p2179
I274696
sS'4-B5ou1FbGVjVEQd3FAoIA'
p2180
I270315
sS'tTHVQItpZrYZ_F0qtUTPcw'
p2181
I272044
sS'cKtBFMESwsUWxTv6QjkTGQ'
p2182
I272998
sS'KxgYWm_ZpGkLG20fg6gyHw'
p2183
I267908
sS'SWzCFTM7KHc-MncD6xxOYQ'
p2184
I216117
sS'Y3E5QDlKmjHD2zOSPASFIA'
p2185
I343637
sS'PUcQO7PR44O7etkKxOauVw'
p2186
I267908
sS'P4e1yH_XjwMtlD7jtyTGVQ'
p2187
I272734
sS'EPILrBqmgQxd-R1gZ1EWJg'
p2188
I214645
sS'pZt38dlsMaoRzSh7-f3f0Q'
p2189
I275391
sS'0PO74pfETLFUs0AcdvdCdQ'
p2190
I267908
sS'apLgdH77c_7QRLGpfnC8Fg'
p2191
I267955
sS'9qDmQHQMMlH_-t6lF8uHoA'
p2192
I267908
sS'dpaIEt3IP3EEn3RA9nouRg'
p2193
I275454
sS'okrarTDfBtgrk2GOXvCGGg'
p2194
I272734
sS'MNVLkDb1cIXBlSgj6L9rbw'
p2195
I267926
sS'dswXD6LsO0rKlyD6up66iQ'
p2196
I274078
sS'g6wD_iM7rdeeGizFHQucow'
p2197
I267908
sS'Ku0nT2CGkj8NjO1IX39e1A'
p2198
I112547
sS'1wLBPs3gRDXC9sQG3pd54w'
p2199
I267955
sS'oE6iNXWpo9XxAWm-CGvcww'
p2200
I267908
sS'ljKPmpxxTJSEArW2T-ikFA'
p2201
I213494
sS'shGQ1-I_eVcid-jrQIhbfA'
p2202
I267955
sS'7IRQXpt5fB6sFEpbWfU7zQ'
p2203
I267908
sS'HNusESyB6lEgrf5IUwUr_g'
p2204
I267908
sS'DReLu6HuFOm4p-jYZpgQkw'
p2205
I274959
sS'OWNkVvDfREC1_6S3jS-7Ug'
p2206
I210081
sS'y-_7mH4FJj0p_oouSLOoNA'
p2207
I267908
sS'DL3R0wTPh_Wo5HCik2Z4tQ'
p2208
I111818
sS'CgHAyABNgzVYOv0-IjZ7yA'
p2209
I267912
sS'R27IDAXpEPNGqCQ4uztrPQ'
p2210
I208472
sS'_7i83lWhb9dYMp8xe7s76w'
p2211
I267908
sS'jw-etWMob2A07geTAVkgEw'
p2212
I112547
sS'pFdDhXs8-a07NwX4L506BQ'
p2213
I343577
sS'JFxTRyDQ-JhyMnDBVFzHLw'
p2214
I343577
sS'AANB0f7QapfE3WxDiqb9hA'
p2215
I208472
sS'sR9lSQiTuBg8zsIw9Zd-Dg'
p2216
I267908
sS'CI5ag8Z0H1WCg3Nii0iRpg'
p2217
I112547
sS'gR_Xp2i0M5iR-Ht7EipWqg'
p2218
I272812
sS'SqIoDpbCXqdAcYmrDLedOA'
p2219
I275309
sS'kk1ZwKPc-dqDFnonf13b0g'
p2220
I112547
sS'cg8b1FGcl-Sytfa8UlCcjg'
p2221
I271161
sS'3e00b3ic-7J7TcSklYVauw'
p2222
I112547
sS'kDtr03NIjERTqpdfVRCXWg'
p2223
I274318
sS'YUZVBdGmagwXV-yOhR-1GQ'
p2224
I271156
sS'RgCJjVtcjFrfT5o2lHw1pg'
p2225
I267908
sS'f8DYp9K4WGkWJYebxIABfA'
p2226
I184371
sS'rHl7fCXz78i89rEaflTPvw'
p2227
I275811
sS'jPHpx-CUIcP_-KbAalNVPQ'
p2228
I267908
sS'xTAflBEx2EF10-C-tvBf_Q'
p2229
I343588
sS'qXQ3ZBdwI3GlbR5-eYWqNA'
p2230
I112547
sS'Bza-l75OiKcMRmTYILpyfQ'
p2231
I271161
sS'AUCSmSZ3fbBeuIhR_51WhQ'
p2232
I275811
sS'LEWcHc09a2uS1dN1GzQi4Q'
p2233
I112547
sS'fBX9zO0TYlI05G8Mw5xSBw'
p2234
I275811
sS'4Z4_92Lr5E58c9-3L3idhw'
p2235
I267926
sS'G-PlXGCY3G4zNOUzD61ZDA'
p2236
I210081
sS'W0cpa_PCU-_KDU1jBGJuMA'
p2237
I275101
sS'BLaazQ4UBuUWh0AeaH2ZIg'
p2238
I273505
sS'od49_DFUJY9louGx80My-A'
p2239
I267926
sS'tUZuEXyXNTdG7drG0C6S8A'
p2240
I267912
sS'DAOt75CziuEyRyEH2hQ2JQ'
p2241
I271161
sS'p0bdt66W3xq3llBQ1u2j0w'
p2242
I112547
sS'FzKvQFDbB2bimdftxMO55Q'
p2243
I112547
sS'66-IsDkAoJ-rsHm3pVL_BA'
p2244
I267908
sS'lH-S5wD90s6hKtUpkFx43w'
p2245
I267955
sS'jQYclrZecFvGquye__yFjQ'
p2246
I267908
sS'xgjiar_l39FgBMng4LdBNA'
p2247
I273592
sS'1GXycbqgmD9TfhQFoktSLg'
p2248
I267908
sS'eDWRhZxP_hUrgLgVZXlcuw'
p2249
I215515
sS'wxPOlYC155x-RLfk1kVdfw'
p2250
I267908
sS'wPidHd5FxspPRgVqdEQ-Xw'
p2251
I343522
sS'cmGR1HS9ms233roSllcglw'
p2252
I215515
sS'dMOdFKdeI7GuZUIq0jwAQg'
p2253
I112547
sS'TGJaChsRa6M87guv6Q57dQ'
p2254
I267955
sS'y9hLY6sdKhxz1puWrp5f2Q'
p2255
I267908
sS'K2_Hmmo5crTYWiT_1sWnfQ'
p2256
I267908
sS'XL6cuachrM1zC7siCEEsqQ'
p2257
I267955
sS'pfQbPjhVkGwGFKskXiFQqg'
p2258
I112547
sS'CkflToTnXfCKa1LjnuzHwg'
p2259
I267908
sS'cpxwd_iFG3Oh1LUMJn0rOQ'
p2260
I272812
sS'qyaHAokceoTnzYEwogZwMA'
p2261
I270312
sS'p2rwsM4zoQ32jeybGYPT-A'
p2262
I267908
sS'qpsej-hIcCcRR8nLbBDI4g'
p2263
I112547
sS'9dRhseYpES0LO0iNDLHtrg'
p2264
I273806
sS'5z1TluGqhwVYrN7ZZPDW6g'
p2265
I343632
sS'qQvpS262VPEHKZvM6j5uhQ'
p2266
I272295
sS'ukmUw9Lk6JjS6cndXlCj1A'
p2267
I274148
sS'C37jakxE5TX6ccAfjp2kJA'
p2268
I267908
sS'BJLoCsSp2TkHeTv00fJTVQ'
p2269
I267908
sS'dLBqf9QayF9eSUzz6BvmSQ'
p2270
I267908
sS'9Vu9KhK2-kBSM-FXvxXGNg'
p2271
I267908
sS'-R7uChoaVzwNvPNMT1gOuw'
p2272
I273505
sS'tGMVUhYaFc5oKYLXFPAOSw'
p2273
I267908
sS'PeswraYFyhr33CmAK5oW5A'
p2274
I267908
sS'FQudBiBiz9bGQLF_kK8UCg'
p2275
I267908
sS'2yBBmcVEbhrGrk-hAUAfJg'
p2276
I272848
sS'AJyJOJKVDWrcIvgAX83eAA'
p2277
I274959
sS'rlApP8IHKEW8eERHhZpdOg'
p2278
I267908
sS'Lt-dQ0kUWFm0nDgLwdEo_g'
p2279
I267912
sS'06SQoq5EV4XAY-yKrEtCQg'
p2280
I271161
sS'jSEcE8AY-mzGq9EOiyrtng'
p2281
I267908
sS'byzQuxKTO8huhkPTTsTWoA'
p2282
I267908
sS'BG4N0V93wml9kaU6YYRxRA'
p2283
I215515
sS'jmHing2kjywBhQlZKsgD_w'
p2284
I275947
sS'tbNSGiIKysRn3HE2lEAE7g'
p2285
I272812
sS'cbDPJEQkZut4J9F1-npsuw'
p2286
I112547
sS'2BcNZqbEY9x3F2hcs5GUhg'
p2287
I267926
sS'cibtubYc6gd8T6Y-nPPByw'
p2288
I273625
sS'pbnkhsw2kw60Qk9_Ms5WUA'
p2289
I267908
sS'VsGWsUu5k7yGB_EJWZyZsg'
p2290
I267908
sS'x_EAlTmVEbNCxeqTXeEJMQ'
p2291
I270327
sS'h-Ospc-uiMH8TLquTeAr3A'
p2292
I267908
sS'8ukXESjPTI7Axn63SsWWRg'
p2293
I267912
sS'yi6OvInwsGZ6CO0ToFGOHw'
p2294
I274845
sS'FKUResyfat8sK9VqEE6TyA'
p2295
I267908
sS'2IWCmtpNVvu1h0UEc4S5DQ'
p2296
I267955
sS'GiElN3AF8N4ZpfH6PNRjdg'
p2297
I275454
sS'rBbzUCU9iU1XxyNVXf4T2A'
p2298
I275812
sS'C7YKuZIZ-h-DpaSeBK69Fg'
p2299
I267908
sS'legTAWPSLBTRVBvikPXATA'
p2300
I267908
sS'niW0ggRVPW5fafcfImdK7w'
p2301
I216117
sS'iBwurIyQCD9BRqmvxKZqMA'
p2302
I276610
sS'joVkrByRkDujZP3w4_1Fcw'
p2303
I267908
sS'BXKhaF0EeDnycbqgKzDuJQ'
p2304
I267926
sS'sbTF0cLKZH6_BP8BLARVDg'
p2305
I271161
sS'ASwN3Ih0Eh1oH0npLbzVjA'
p2306
I273505
sS'v-PB9Sf9wEoJ29Z9oNubLg'
p2307
I111818
sS'l-dc5DeNBiHYJA1XO4cFPA'
p2308
I215515
sS'As7RemQnYJskIBPWUh3MIg'
p2309
I267908
sS'keOcAcjO9uDScfugyahvvw'
p2310
I275309
sS'JYTbkOJ7tEbmHk67UAaxvg'
p2311
I270327
sS'lF1xl8uiYRSLCibhb31sew'
p2312
I267926
sS'riqqVx-LssGUErBeQisKng'
p2313
I271179
sS'm-XMNHUfuniMD3DR4AC_ig'
p2314
I276557
sS'oiPeDFjOQlkJzxOg7P7nag'
p2315
I267908
sS'MMgjU4K0D9RLsb7BWEic4g'
p2316
I274959
sS'm8NYRJSaVgjQfsCjYYgZBg'
p2317
I273548
sS'l3mzaesyc90rxXt2d4HpTg'
p2318
I273228
sS'Ypx_idDaRN0dOrE8LXvruw'
p2319
I267955
sS'a86O40QjwMxqaQYo9ZBM3Q'
p2320
I112547
sS'4pDO3TZ-WJDofAt4uREMig'
p2321
I271187
sS'PslSrdROrxRbSAPH2eHemQ'
p2322
I112345
sS'izF6o43M1eWpivukmRQpRg'
p2323
I343522
sS'pkkqve6-y6EXNlJioO5pjw'
p2324
I112547
sS'ymcy1g4fRDrQnzSI9HG8SQ'
p2325
I267908
sS'aOoL97QDyIJRy9NVwcCUOg'
p2326
I112547
sS'8r2NM5iGTu5Hr1icq6Xb2A'
p2327
I267955
sS'PxeX1M8WtyPxX1MuuGIh-g'
p2328
I267908
sS'1IwQhGGOrVNGGQskR_3uLw'
p2329
I210081
sS'_yPLHvbeRcFazrUusCNHKA'
p2330
I267908
sS'_8Y-XNHmQ76xmxUQIrn0sA'
p2331
I267908
sS'EhjTY_BkSviBNF5Rb1I0fA'
p2332
I267926
sS'DV6hBoSQRLQMkASYqLcEAw'
p2333
I267926
sS'o9xelj7QXJryb7pWWmgd-Q'
p2334
I111818
sS'7ziCtAd4v8-cE_PJ-SoobQ'
p2335
I267908
sS'mnSsQl5mIgN9gNfFLGKq2Q'
p2336
I267908
sS'c_PhRjEIA2jRAvWDWsn4Vg'
p2337
I267908
sS'htkDJW_dcMhVyHdBr3esdg'
p2338
I267908
sS'OIL-eZX8d10jgWPLW-E7zA'
p2339
I271156
sS'xLaUsDsNaX3_E9FoZRvzQw'
p2340
I267908
sS'kpF2VBmL056vW2p5LuXkzA'
p2341
I272734
sS'jYyfLGMURG2pQ6k80R4eZA'
p2342
I267908
sS'-A82xEVAjOYZtDdRQw1FQw'
p2343
I112547
sS'Ig74RHJuf1DbDmJNWQ-HpQ'
p2344
I215515
sS'-nO_qj9eP-os3baYyh8eNA'
p2345
I271162
sS'ym11iAZoePecpNoTE4NIGw'
p2346
I267908
sS'YxxXnSP8jXGWWL7vnTQRdg'
p2347
I267908
sS'Ba1hXOqb3Yhix8bhE0k_WQ'
p2348
I267971
sS'-3WVw1TNQbPBzaKCaQQ1AQ'
p2349
I267926
sS'eqA6QOl1VNgPI-_87CwRFQ'
p2350
I273505
sS'l6d9-LxY8gM6v7WxehHfwg'
p2351
I271161
sS'ylhr6YJVedZw93NPnkCWpg'
p2352
I275226
sS'k7xAg1QhK_8wze3BYWglRQ'
p2353
I267912
sS'_yGo2ubkwQPXcKrdcURSNw'
p2354
I267908
sS'PzG0XmAmtXFs6Fdnubf41g'
p2355
I208472
sS'k9ef3obSMHzZHC2kReDzHw'
p2356
I267912
sS'AAcw9y30cRuMo0oa8UBiIw'
p2357
I343629
sS'8NnFve6QYvTNjrhVc-sepQ'
p2358
I270317
sS'_aGVicux2dJm9sqzLSCJtg'
p2359
I271161
sS'JqAI4UA2xXPYxvlhzG-i9A'
p2360
I111818
sS'apCfJVnRyaw6oVUBKujpUQ'
p2361
I267912
sS'L83dOubt-Q-eQviITaPcjA'
p2362
I343518
sS'rgmptwPbBH1wLpiBHcbIhA'
p2363
I215515
sS'3Cb6vwHIW8-77TZz0DRpug'
p2364
I267912
sS'24GmG-gusr5Jugnf_iX1KA'
p2365
I208709
sS'0hwuBNP6H0jMdsjRgEFHFA'
p2366
I276523
sS'eovEq5kDSdf0WF_P_bD2Uw'
p2367
I267926
sS'zzucnDH33KlmbkI4rLyQTA'
p2368
I267908
sS'7NkGi9bri766Pf2RaTAQow'
p2369
I112547
sS't719u5GZY0yPX4U7t5whrg'
p2370
I274617
sS'xThVEamiguUTDxiclINYVg'
p2371
I267908
sS'DTlibocefGD8VkBZxByXkw'
p2372
I267908
sS'bYEwuO-Z14enA88RKyMHbw'
p2373
I343577
sS'z4cCguoHdU48pj6sXMIzqg'
p2374
I271161
sS'Y_OeiGhTm6ZEfZ1UQgM_wA'
p2375
I274959
sS'yYIEKwgQUHJpySOcVdCAkg'
p2376
I272044
sS'kOT8AO8e1e3J9pUBJ2C7Iw'
p2377
I112547
sS'F1WATjGcFKhewCXvleTi8w'
p2378
I343637
sS'3SCIhgeYSbd3OzSCQoZcag'
p2379
I274743
sS'x7nnNkAXy9aI4KBz6RMerw'
p2380
I272223
sS'fN-ISSf1Ic68B2kDNek_uQ'
p2381
I267908
sS'VxnV1uMZURUQMNUaPdB8QA'
p2382
I267908
sS'xO09rJXkqonSRzUzcwjoFQ'
p2383
I276217
sS'MQtzOBwYXrTjqkWLLKInew'
p2384
I343577
sS'-6JY1T0w4XETux5kGOj84g'
p2385
I273727
sS'3rJE7qliy8_ylKhY5FdlIw'
p2386
I267908
sS'CfzoA3TQ8YQcFTOncJFbQQ'
p2387
I267908
sS'GpK9MeUjEd7rwhejG2ykww'
p2388
I267908
sS'nLpV9fo8xml-QHOKyOje2A'
p2389
I267908
sS'xJ9kdujal0bSGlZ9tsvrYw'
p2390
I267955
sS'TqHTtjPANCBKGsjGBjDoQQ'
p2391
I267908
sS'S0Sx_pYkZbneeQzxLm9MnA'
p2392
I215515
sS'k1DNE0WhO_ZonpSypbeNyA'
p2393
I267908
sS'PxqufEwqzIHAbQGRdZ3bUw'
p2394
I267908
sS'dawAnASHIDi1CQ7y9_tOgw'
p2395
I267971
sS'XTtNevBI5G5x_GjFqSBMpA'
p2396
I267908
sS'_SZwP-ddcBpw7aZsCQKSww'
p2397
I267955
sS'3jPNfiRYdu-tlJM4OGF3og'
p2398
I271161
sS'PxUQyOAdK8c3P_WnrXuCUg'
p2399
I267955
sS'INAZN7Ymyzmm7PTpB7kHeA'
p2400
I267926
sS'53Lq8bak88EtuZyKMmDPmQ'
p2401
I112547
sS'AuuZvrrOo9IiNcHFAxH4KQ'
p2402
I267908
sS'ZN-RG7wkT8MLsmaTPzIW5g'
p2403
I111818
sS'1qUYk564SajvwTtkNM6KJA'
p2404
I215515
sS'nkNdTqpv1m5GBKx8xrpluw'
p2405
I180250
sS'0K35eGvzVRZEirNo5v_WfA'
p2406
I267908
sS'SOHp2b8quJEitFeuO58Syw'
p2407
I267908
sS'7z1VvFdttxh23TDaLOrHOA'
p2408
I270315
sS'BHd2uFlGhHldJVhDPqBWDg'
p2409
I267926
sS'BGRPNT_y79TWSYhViUl31A'
p2410
I267908
sS'pU2yeKn-NNJnbMLuFfAXBQ'
p2411
I267908
sS'bLh6WbEakHBiLHUsUAkJnw'
p2412
I273960
sS'LXhL5X3edNRy7epku6UAEw'
p2413
I267912
sS'5MChfa-jZfMo3vBpolkSbw'
p2414
I208472
sS'jTcLbRCOCnGB4wCgsIYswg'
p2415
I267955
sS'3UBiDR6L-U8xl53C3x64TQ'
p2416
I112547
sS'-lOSaCuBRAvX5JBifx-EMw'
p2417
I267912
sS'P3DbF086gy6yMYIgTdR9yg'
p2418
I267908
sS'gCiKiqPGAC_ZVt5bBcwnrw'
p2419
I208709
sS'_tJKWq1GebP4ZRfK-aO9mA'
p2420
I267908
sS'Wk8sSxmxDdj_n4WJJRRLwQ'
p2421
I272044
sS'f5Zo7ERPbqcj9soe1DimpQ'
p2422
I267955
sS'B9C6j80ob0f1pwi1Cnnd1Q'
p2423
I215515
sS'XStsiplxlx8Guqf-oV5LAw'
p2424
I272087
sS'B5x1E8x6l7Jfic13OJ-BkQ'
p2425
I273505
sS'pACm1yLb9Pwc1mOuvC3UDw'
p2426
I343509
sS'LzpR_jE6VIutJ08s2cdRrw'
p2427
I267908
sS'sbZJhAJZuVkTXtolb9Zdyg'
p2428
I343518
sS'KHOHjA8HOcTlFBCtMQFv8A'
p2429
I343577
sS'6cGO3KIyqlRgBEPrdKzGtw'
p2430
I274268
sS'StSpGJcOK3oFXw93h0jRjg'
p2431
I273505
sS'bewtZL-VV1oeGUdAhHVz6Q'
p2432
I267908
sS'UnxC_75OQ3hS4bB_onepOw'
p2433
I215515
sS'Hlel9C7zYx7PFru5tOeiAA'
p2434
I273505
sS'T998Ez8h8CeZg1eNVbG77w'
p2435
I273505
sS'2TK2w_wpYeqRnBc7jkczIw'
p2436
I112547
sS'qCpd4c57U0LI7LKdAsCPbQ'
p2437
I216117
sS'V5SEipw__kBpFPlo1Rba-g'
p2438
I111818
sS'0nyaKW_6QHSJ74OVnDmyhA'
p2439
I267955
sS'gT-uxIC_xySxEiCxZXmg_g'
p2440
I273505
sS'gVEtYzzezWoy1Jfvtv3ZLg'
p2441
I267908
sS'SmxYzoYDxMRMahF-PO7gHg'
p2442
I274959
sS'EtnMSBRlMQWrdTla-jz9RA'
p2443
I216959
sS'4q2nThFVuU3BZoEMkYQ1yg'
p2444
I215515
sS'xKpBK3ZXF8R_c88JNbgVAg'
p2445
I274959
sS'q83uB6EGF6y2MuR-7VZPRg'
p2446
I343513
sS'bo7pxmvcRlZURzhfmIL4zw'
p2447
I112547
sS'1-1VcGTL3GyCqUpXZLFTZA'
p2448
I267912
sS'sctg5U2PEmGoxyPQx5lYgQ'
p2449
I273505
sS'tQS6TT2B__SzsWxPZ-RrNw'
p2450
I267908
sS'GZNEPuEPqs7JIswUhOttnw'
p2451
I112547
sS'1VwNfG5THx80PUMyQB3LEA'
p2452
I274115
sS'a7OF5WBirAFlVH7Xp1885g'
p2453
I267908
sS'796udskkHkdfSEW0TZ3Ezw'
p2454
I267912
sS'dNEAXZDrZ3TtK4d7Pl2Ydg'
p2455
I267912
sS'-vwcqtKFOmi7568O0xvcvA'
p2456
I275811
sS'-xXW9LX1p2QN-S19ivqebA'
p2457
I267908
sS'MECLC5Ns20iEm9yk_jKH8Q'
p2458
I112547
sS'a933ecROIB44zhzos11YTg'
p2459
I272295
sS'4anyLAWqWVZh5BFpol9czQ'
p2460
I112547
sS'TxKmAsKQjND5vbhBdUSyIA'
p2461
I215515
sS'xgcZN3F2f9LxLASQK_xzhw'
p2462
I216117
sS'pOgvHSiPd4hRlCkekZsBZA'
p2463
I267908
sS'I3AF57q9EyNALE9rA37o6A'
p2464
I267912
sS'K9fIADfO_zKFPFm75A1Hxw'
p2465
I267908
sS'Dumx0uxl5o7EcYlXAbxvMA'
p2466
I267908
sS'8PsQqhrAH5uqJ7HODOmXYg'
p2467
I273625
sS'k5IoTI0Bk_DY18YMIQ8rDA'
p2468
I267955
sS'l3N07ZNUCTgooKAoJcxQZQ'
p2469
I208472
sS'MIKf5qvfY7hBLGQ_8Ml8tg'
p2470
I267908
sS'TPyGIwybbUsOvwERNzNYnw'
p2471
I272734
sS'2FiLqh18ypsamf2vZOj7eA'
p2472
I267908
sS'ShPDadyMMhRphFZApeG8-Q'
p2473
I273505
sS'cBH0kCvvUjQ9DBaAMUDSMw'
p2474
I267912
sS'mOwAbR9_RgBQuFtr71UtzQ'
p2475
I267908
sS'D09yG6Z3gcsh24Qn7Y4gYA'
p2476
I267912
sS'udbtIhRXiehLRQoMFKvNXg'
p2477
I273727
sS'4kM-mP7z1nP015R2Tlz1Tw'
p2478
I180250
sS'F1dtFd0GnSioCfIo4gAtkw'
p2479
I216117
sS'I8gWPPkeXJIC0hpjK-8ptg'
p2480
I267908
sS'0FgwBx7pgmNdUtsd_T8UYQ'
p2481
I271161
sS'kdHuLZuhj8p7CzJWPpl9OA'
p2482
I267908
sS'ZUdsjWHZVo38isY-xhLSMQ'
p2483
I270315
sS'faitVIiNezSN0ogZQSZPWQ'
p2484
I267908
sS'Xobu8FzHN0KUm5Lw3swypA'
p2485
I267912
sS'SVBFlJtfAiPDLvCbZC6wWw'
p2486
I270317
sS'4dwdYuD4vEBByfVQ--vlVw'
p2487
I272954
sS'Q0Mb1wtXrza1nKWHqiLfDQ'
p2488
I271162
sS'Uov4o_7gRqQKQyjVhWOpVA'
p2489
I267908
sS'KCVFLo8PEJ54FQP6sVbymQ'
p2490
I111818
sS'3_3yJMo2dTPeq8woOW69IA'
p2491
I208472
sS'FcO0jgGVt2e3iJbGJT7blg'
p2492
I267908
sS'UdcvNApAUs7Z7NkFSFTl8w'
p2493
I275811
sS'TBTaMIaeDw5B79hXDZBtrA'
p2494
I267908
sS'0De3TQ_uSOXwgduKL0va3w'
p2495
I267926
sS'-SS0C3OoPhVVBFCFfDWB2A'
p2496
I267955
sS'iYj4QlA3Of2WHTtyYGTodw'
p2497
I267908
sS'YWp-tyJxC7zaOHQbqacMkA'
p2498
I112547
sS'KEzIorUdFjqCuxbRxKPghA'
p2499
I271161
sS'tJrJSHIM3j4CJkRl2OXn6Q'
p2500
I111818
sS'4sE8irsM-l6Y-Npodmx9kA'
p2501
I112547
sS'q2SZa5g85758iW1L9sSL1g'
p2502
I267926
sS'R5zU2QNqKW9U2CRePh-bEQ'
p2503
I267912
sS'lCgP9iJdYY3n5varr_4jwA'
p2504
I267926
sS'NNGp3u2-w7P964TuuvJntg'
p2505
I275811
sS'm9Wqqma30o-hH2fAX7dnug'
p2506
I267908
sS'DzHXDDT4QoEX847MEAFYiQ'
p2507
I112547
sS'VXIkI9_EbDbYHeO9IzKjJg'
p2508
I267912
sS'UWyW-lyljb_SrCnSEuugUQ'
p2509
I272232
sS'I5JRRkFZrrdcdiT91WwdUw'
p2510
I216452
sS'QB64-PgfEUzbrOL50bJ0Bw'
p2511
I272295
sS'-f5xy4PY0DV-9FyIM6-M6A'
p2512
I274546
sS'L95jFICMBewv08k7YUx5OQ'
p2513
I272734
sS'oUrlWqz2tkyNRcggKZWfAw'
p2514
I267908
sS'iEnerduM05ZyzOYJt3w18A'
p2515
I215515
sS'Y2p07YEC8xOsYTHWf0UxiA'
p2516
I215515
sS'542yzNlAhZK9qk6Ibqd06w'
p2517
I267908
sS'QoCjVVy4--QNyVRkzQTCEg'
p2518
I274617
sS'z24h6ZYnZiWjlDTuLXG9jw'
p2519
I273727
sS'PkBqPU83bf1zArumGVHqcw'
p2520
I267908
sS'J7XRfg3ScS5K7UyM5Te-ng'
p2521
I273643
sS'RZyZyKpXO84amdR1Gg8tuQ'
p2522
I267908
sS'McdTNj-TUMOlfkHwQWs4rg'
p2523
I267926
sS'HaovPT3PYHnritynle_Gww'
p2524
I267908
sS'9ZLbuJ8q5k7l-3CJJeAfSg'
p2525
I267955
sS'WV2OClFHiG0_obPY559cKA'
p2526
I271161
sS'If2DUhmWIvlu2JFc_rR-Bw'
p2527
I267912
sS'sv2OgbFETU8sGXYgVF4eOA'
p2528
I275309
sS'XjJUuz2N4RWBGB2EJof80w'
p2529
I267908
sS'gX96CYY9T3K-jiippnnXDA'
p2530
I271161
sS'uevPN8zwJpBpnxRur1jUhw'
p2531
I267908
sS'7XXmky6YYjsvKFwho_eavg'
p2532
I208472
sS'Ld_rc2mgF8IM5UM2aDgOhg'
p2533
I112547
sS'Amr_rTQsbjD4gP08elpNcQ'
p2534
I273625
sS'h3RVuZm8c4OsyKUlOKC-Rg'
p2535
I272734
sS'rByWCBoFuDMUWDM92vOBwg'
p2536
I273705
sS'wN5WijlhJjW_3keXENR1cw'
p2537
I272223
sS'_y7PECWjxr_E-hhmDVdEjw'
p2538
I208472
sS'iGgl5efQjZWbdSNkr5CU8A'
p2539
I267908
sS'2YBOGrV2ms1oAdyGvoy4IQ'
p2540
I274743
sS'rVUEZpHQfWI_3kt0lBwaxQ'
p2541
I267908
sS'AOk-iOQ0UtHio-EOiYnUPw'
p2542
I267955
sS'4rySWsfL5enT7t4XuVNJuQ'
p2543
I267908
sS'3ZzLRa20P219UWXIxMTXrg'
p2544
I267908
sS'kR5i58Pcse1FD9tk-yYLlA'
p2545
I267912
sS'JgGpBGMAb1Nc2Z5jVIwZMA'
p2546
I273228
sS'ZoQAOnEFnyHjSpomtfqesA'
p2547
I267926
sS'lf42gtgq_2_jPvjfp_K1nQ'
p2548
I112547
sS'mnWf1VIErsY1Pi-81bqU4w'
p2549
I267955
sS'3hSmumIW-aqMjfmFMW4bew'
p2550
I273228
sS'ZL6DNzyenFm9Kpz6uADlNg'
p2551
I214645
sS'porUqRPcw8GoTSvZoMH0ag'
p2552
I216117
sS'QMWdcByvCYCrs7-IQyr26w'
p2553
I343577
sS'Khv_fiHqB4JcMkzzz7yd7Q'
p2554
I273858
sS'8WQMr5QBjs0xeMPZjj3iRQ'
p2555
I267955
sS'PkrXY-f6LlPDdWYRj-R7FQ'
p2556
I275391
sS'e7ExjMdmeF95SzrZ--dHcA'
p2557
I276573
sS'Dqr1eP7wpo0BnWdMp4ViNg'
p2558
I112547
sS'0jDkXQdprSgbx8GeK0dcTg'
p2559
I267908
sS'cuuJJ9W3tYmidaLvlzvPBw'
p2560
I271161
sS'fNOig3UG2jOdlDoWNwHYFw'
p2561
I272954
sS'68JsiWNLKs8NDCrBCxIWMA'
p2562
I272243
sS'xH9zGlw85wE3q5YJ5D230Q'
p2563
I273548
sS'vIcxwc4fnJJEHiNg6xpY_g'
p2564
I275309
sS'6Re0uCzZeFxVUo8R9eqqXw'
p2565
I273643
sS'UV9c6A16IXXA7JmkTor8Tg'
p2566
I343577
sS'I9-Ei8_KYtMjbixNJSCvwA'
p2567
I271169
sS'yM4lEUebhPDDKKqLoKRlOQ'
p2568
I267908
sS'_1McGyjz_5SWHboKGSE5lg'
p2569
I272734
sS'-Ph_WROuPonsmzFaJahxQA'
p2570
I267912
sS'k0NvdRnw3vlnBfpUX-OOeA'
p2571
I267955
sS'hBk6L5mFMpI3RrbfRKBbpA'
p2572
I267908
sS'YCqnzEOEwo2_mlDOy7Sahw'
p2573
I267912
sS'diPvh48CJsNW0hsf9981ZA'
p2574
I273643
sS'eSWEZVcsKBb3JDe3EfUR9w'
p2575
I267912
sS'9jkxYkOOLge89D3KHrrNsw'
p2576
I271169
sS'uQ1YuSiDgHwVwdFVW-nLqA'
p2577
I343518
sS'YTqSkgOiiI9HG3hNH7ovfg'
p2578
I208472
sS'HzZ3424aEgmElEP06l0KKA'
p2579
I273505
sS'CESMPxEWnj42f4nTXV3_yw'
p2580
I273548
sS'XEIBxVb0fduylFJ_P05rEQ'
p2581
I274546
sS'1zzOURgQaOiv1Qq-k9lDVw'
p2582
I274959
sS'CLvpX-lYjnz6FvtmMRkYew'
p2583
I343554
sS'Lvk4P_Npmueqs-n1hAxxWw'
p2584
I275811
sS'xAtaxa8D7Sv58q94OMaNCA'
p2585
I208472
sS'WYnveDiSEXLCeNkLZrXibQ'
p2586
I270315
sS'mbKM8aLB3H7BCEGbQspPFw'
p2587
I216117
sS'm6vwfpZSuAdsArtbVZ4-NQ'
p2588
I267908
sS'zczKkfpjz510tZK0SnHYDQ'
p2589
I208472
sS'JrXNBygUySEQ_KV3dZj-2w'
p2590
I267908
sS'cH8I7JgPXcrcutT1a3YrjQ'
p2591
I208709
sS'xHuAAM3LjB6LOzNx80ldew'
p2592
I112547
sS'k6C5YiGHU_aT8oXSkGb0Pg'
p2593
I267908
sS'XzaJf6WzpU7RsXTXzx72Xg'
p2594
I208472
sS'pHBQ-dQRwN3z7Rq7iSog-A'
p2595
I272232
sS'Yc_UKWzo_fPgkr_K2ZqUHQ'
p2596
I272734
sS'x_9nxwoGl7NBSzpBsD4iVA'
p2597
I112547
sS'xopQn_MCE8bSBOyhsj6pVw'
p2598
I272812
sS'jUQpIF_bhhF_XQqScrt5yg'
p2599
I272734
sS'-TQN9takwe5zlgxFSI-Reg'
p2600
I272734
sS'RqZctFR39-ZFkBEFTA1GyQ'
p2601
I267908
sS'DjnNu1sWHEJpNBnW7CSdzA'
p2602
I273505
sS'AYlYOOIbYDvG1dXMgMNStA'
p2603
I274959
sS'vQxxDYo-riHU5j9jHhi_tw'
p2604
I272734
sS'NjwxCfOTleHsYgcHtEsAPQ'
p2605
I272734
sS'IceZ4BtTz76eppjNWm-c6A'
p2606
I267912
sS'HpWiJ5iTdOHL7DUBjJOy3A'
p2607
I112547
sS'FW2Z4ll4zSOEDAJX9-wBZA'
p2608
I267908
sS'4Mdz57vz9BEXKvC5EJbAgw'
p2609
I275121
sS'_ofao_kfutdp71Bh9JiyOw'
p2610
I267955
sS'wK3Bxrjd4pfwhxlVkKawpw'
p2611
I215515
sS'oc0Wl6ktfMLb5VZ2Uz6M2A'
p2612
I267908
sS'-Am2JVkb7nwvBAUwSugG0A'
p2613
I270315
sS'cCStad4wX3ADPbz5AHCn9g'
p2614
I343526
sS'nRdpk6Azj6CYkqPrH0Nr7A'
p2615
I273727
sS'f0lx8pPqhcMUCJgURzMUSw'
p2616
I216117
sS'Epv7izDWH2RslObhQCYvhQ'
p2617
I112547
sS'1MApscjpyygvanCdaesG3g'
p2618
I272954
sS'_RBUU1y4yJrK0SPAd8z0-w'
p2619
I267908
sS'P7wKlbSRsoRrfH3DFOY08A'
p2620
I267926
sS'3otBu7AL-OBwldWzt3hq-Q'
p2621
I273723
sS'ePP0Eqz8JKSbtdt2phiB4A'
p2622
I270315
sS'_gXpjRIjb5fv5f5IVGXvsw'
p2623
I267908
sS'IEHaU93HpEbdUO4z4bKzDw'
p2624
I216117
sS'23Q9RhHrCLg4WCcQ8EGc6A'
p2625
I274848
sS'5j704vZBOmW88yJLhnCOEA'
p2626
I273505
sS'8PnmGKOTyHKp0b04w62fMw'
p2627
I267955
sS'ezM-93i6eNb4LnYp3J101Q'
p2628
I272734
sS'ePogmFFQkAy68Ne0VVUGBg'
p2629
I270315
sS'DlCtdbceo4YNSI53cCL2lg'
p2630
I267912
sS'-yzbXeIf2QuN19kC-M-KFQ'
p2631
I267908
sS'JYMlJkfOShT1PEcFyGPpbg'
p2632
I267912
sS'YbQH-Fwdd5K5yyDtT-qCcA'
p2633
I112547
sS'ZLO5b4ZOJsBNHF0Bp1iXZQ'
p2634
I215515
sS'FD6OocZdFUfE2J5H0WN4fA'
p2635
I208472
sS'LltDzuzRbAJbSrqD4JH-3A'
p2636
I208967
sS'Ws7LLesA9z_E1I9HVqbedw'
p2637
I267908
sS'56eSsdwPI7t6c0t312VqLg'
p2638
I214645
sS'Uj_doROgb3Nnhl7MLslS-w'
p2639
I272734
sS'AGfZlDg9IeajHP5Rj1RpMA'
p2640
I267908
sS'k4LL_I27WNAYFWn_Nf6tlg'
p2641
I276610
sS'0ilWo2kWlmP_Nv-P2rcNOA'
p2642
I272087
sS'A3s4DU0K5AXSMyAcQ6aaZw'
p2643
I273228
sS'aad1G4DuCb_hhFu0Usrlmw'
p2644
I112547
sS'vX9CfSkN-L94l9ToLskgAA'
p2645
I112547
sS'qUeBDN0D8SC93KeAHhiL-g'
p2646
I272753
sS'Gw5POFxBRoJxN_ZYhk6lgQ'
p2647
I274959
sS'vUmCtldBjn_AuHW4tg2LZQ'
p2648
I112547
sS'L7KHl7v7g3gDxUEpAt9z-g'
p2649
I214217
sS'gdcjyLwYH0bZslQsq5AQOw'
p2650
I272734
sS'YldXB1hRpnE1CWLF3mvgpQ'
p2651
I267908
sS'T1jYZFB_7cqdhuvzpxfFWQ'
p2652
I184371
sS'zXfDvPmyK-yzFhP2QMFlwA'
p2653
I112547
sS'yS6tXY9skBQ4eLZLQaDlEg'
p2654
I267908
sS'Hh5lyZtOrS5LKk4YCgj8Kw'
p2655
I272198
sS'1qGq_IcIQLEESnVNMQ52xQ'
p2656
I271161
sS'7eODhdtMruuIHhvvOXSNiA'
p2657
I112547
sS'c1ixeRdwTvNt6YLew-sSCg'
p2658
I275170
sS'9rbWt_PX8qVVN-nEJv3A9Q'
p2659
I208110
sS'JR95uaM82xBUIZ-kQ785iA'
p2660
I267912
sS'OjzR6hUYasFReo0vhVn0-w'
p2661
I271169
sS'SmJbLEfRa_QKD7RJZJ70Dg'
p2662
I273505
sS'trAvQPp7gps0Btk-2AmLpw'
p2663
I267912
sS'MJFQJCbA71OO7ugFY4cb4Q'
p2664
I267908
sS'E_-4Y9vn-u-dPgp33TLRUQ'
p2665
I208472
sS'72INqF4dYTHdCoUoePIuSw'
p2666
I272734
sS'8RwYGTgvBYWRushGoUdFJg'
p2667
I267908
sS'ky28rk4PPr-d-PvTnmneIQ'
p2668
I271161
sS'U_7v32SpCrB-0pR0B8Fg2Q'
p2669
I271161
sS'POBB4VfC5yRIfK7Ou0UnAg'
p2670
I272734
sS'Um5VnQXli9IwplV2rmgggg'
p2671
I267908
sS'C83oJwZAO3DP2RQ2Labi_g'
p2672
I267908
sS'3G8_qVxaTkkO5b70_H8YDA'
p2673
I273806
s.