(dp1
I55
I5123
sI96
I5135
sI115
I5152
sI116
I5207
sI117
I5181
sI118
I5179
sI119
I5112
sI120
I5115
sI121
I5115
sI122
I5168
sI123
I5168
sI124
I5168
sI125
I5179
sI126
I5178
sI127
I5168
sI128
I5115
sI129
I5168
sI130
I5115
sI131
I5174
sI132
I5174
sI133
I5168
sI134
I5115
sI135
I5115
sI136
I5179
sI137
I5182
sI138
I5115
sI139
I5168
sI140
I5115
sI141
I5168
sI142
I5168
sI143
I5168
sI144
I5131
sI145
I5115
sI146
I5115
sI147
I5115
sI148
I5115
sI149
I5115
sI150
I5182
sI151
I5115
sI152
I5115
sI153
I5115
sI154
I5115
sI155
I5181
sI156
I5174
sI157
I5168
sI158
I5168
sI159
I5115
sI160
I5112
sI161
I5168
sI162
I5115
sI163
I5168
sI164
I5168
sI165
I5178
sI166
I5115
sI167
I5168
sI168
I5168
sI169
I5168
sI170
I5168
sI171
I5168
sI172
I5168
sI173
I5168
sI174
I5102
sI175
I5168
sI176
I5112
sI177
I5112
sI178
I5185
sI179
I5185
sI180
I5185
sI181
I5185
sI182
I5163
sI183
I5168
sI184
I5112
sI185
I5163
sI186
I5155
sI187
I5120
sI188
I5155
sI189
I5135
sI190
I5155
sI191
I5155
sI192
I5155
sI193
I5119
sI194
I5119
sI196
I5124
sI197
I5124
sI198
I5124
sI199
I5124
sI200
I5231
sI201
I5231
sI202
I5231
sI203
I5169
sI204
I5124
sI205
I5124
sI206
I5154
sI207
I5154
sI208
I5154
sI209
I5154
sI210
I5154
sI211
I5154
sI212
I5154
sI213
I5149
sI215
I5228
sI216
I5149
sI217
I5228
sI218
I5175
sI219
I5140
sI220
I5154
sI221
I5140
sI222
I5219
sI223
I5216
sI224
I5140
sI225
I5149
sI226
I5154
sI227
I5149
sI228
I5194
sI229
I5132
sI230
I5154
sI231
I5154
sI232
I5154
sI233
I5132
sI234
I5149
sI235
I5149
sI236
I5154
sI237
I5154
sI238
I5228
sI239
I5154
sI240
I5132
sI241
I5154
sI242
I5149
sI243
I5228
sI244
I5154
sI245
I5228
sI246
I5140
sI247
I5114
sI248
I5099
sI249
I5138
sI250
I5099
sI251
I5138
sI252
I5099
sI253
I5099
sI254
I5175
sI255
I5111
sI256
I5146
sI260
I5146
sI263
I5107
sI264
I5146
sI265
I5146
sI267
I5169
sI269
I5107
sI276
I5146
sI277
I5107
sI280
I5146
sI284
I5216
sI286
I5107
sI294
I5146
sI295
I5146
sI296
I5146
sI297
I5107
sI303
I5146
sI305
I5146
sI306
I5146
sI330
I5098
sI351
I5105
sI354
I5167
sI356
I5207
sI358
I5206
sI365
I5120
sI366
I5120
sI367
I5120
sI368
I5168
sI369
I5120
sI370
I5228
sI371
I5120
sI372
I5217
sI373
I5120
sI375
I5120
sI376
I5217
sI377
I5168
sI378
I5120
sI379
I5217
sI380
I5217
sI381
I5120
sI382
I5217
sI383
I5120
sI385
I5120
sI386
I5217
sI387
I5217
sI388
I5120
sI389
I5120
sI390
I5120
sI391
I5120
sI392
I5120
sI393
I5120
sI394
I5120
sI395
I5217
sI396
I5217
sI397
I5217
sI398
I5120
sI399
I5217
sI400
I5120
sI401
I5120
sI402
I5120
sI403
I5120
sI404
I5120
sI405
I5120
sI406
I5120
sI407
I5217
sI408
I5217
sI409
I5120
sI410
I5217
sI411
I5099
sI412
I5120
sI413
I5120
sI414
I5120
sI415
I5120
sI416
I5217
sI417
I5120
sI418
I5217
sI419
I5120
sI420
I5120
sI421
I5120
sI422
I5120
sI423
I5217
sI424
I5120
sI425
I5217
sI426
I5217
sI427
I5217
sI428
I5120
sI429
I5120
sI430
I5217
sI431
I5161
sI432
I5120
sI433
I5217
sI434
I5217
sI435
I5120
sI436
I5120
sI437
I5120
sI438
I5120
sI439
I5120
sI440
I5120
sI441
I5120
sI442
I5120
sI443
I5120
sI444
I5120
sI445
I5120
sI446
I5120
sI447
I5120
sI448
I5120
sI449
I5120
sI450
I5120
sI451
I5217
sI452
I5120
sI453
I5217
sI454
I5217
sI455
I5120
sI456
I5120
sI457
I5217
sI458
I5120
sI459
I5217
sI460
I5120
sI462
I5120
sI463
I5120
sI464
I5120
sI465
I5217
sI466
I5120
sI467
I5120
sI468
I5120
sI469
I5120
sI470
I5217
sI471
I5120
sI472
I5120
sI473
I5120
sI474
I5120
sI475
I5217
sI476
I5120
sI477
I5217
sI478
I5217
sI479
I5120
sI480
I5217
sI481
I5217
sI482
I5120
sI483
I5217
sI484
I5217
sI485
I5217
sI486
I5120
sI487
I5217
sI488
I5120
sI489
I5120
sI490
I5120
sI491
I5120
sI492
I5120
sI493
I5120
sI494
I5217
sI495
I5120
sI496
I5217
sI497
I5120
sI498
I5120
sI499
I5120
sI501
I5102
sI502
I5131
sI503
I5131
sI504
I5131
sI505
I5102
sI506
I5102
sI507
I5102
sI508
I5102
sI509
I5102
sI510
I5102
sI511
I5131
sI512
I5114
sI513
I5102
sI514
I5102
sI515
I5102
sI516
I5131
sI517
I5131
sI518
I5102
sI519
I5102
sI520
I5102
sI521
I5102
sI522
I5102
sI523
I5102
sI524
I5102
sI525
I5102
sI526
I5102
sI527
I5102
sI528
I5102
sI529
I5102
sI530
I5102
sI531
I5102
sI532
I5102
sI533
I5102
sI534
I5102
sI535
I5102
sI536
I5102
sI537
I5102
sI538
I5102
sI539
I5102
sI540
I5102
sI541
I5102
sI542
I5102
sI543
I5102
sI544
I5102
sI545
I5102
sI546
I5102
sI547
I5102
sI548
I5102
sI549
I5102
sI550
I5114
sI551
I5102
sI553
I5169
sI554
I5107
sI555
I5215
sI556
I5121
sI557
I5169
sI558
I5169
sI559
I5169
sI560
I5169
sI561
I5169
sI562
I5169
sI564
I5169
sI565
I5107
sI566
I5169
sI567
I5107
sI568
I5107
sI569
I5169
sI607
I5168
sI608
I5168
sI609
I5168
sI610
I5168
sI611
I5168
sI612
I5168
sI613
I5168
sI614
I5168
sI615
I5168
sI616
I5168
sI617
I5168
sI618
I5168
sI619
I5168
sI620
I5168
sI621
I5168
sI622
I5168
sI623
I5168
sI624
I5168
sI625
I5168
sI626
I5168
sI627
I5168
sI628
I5168
sI629
I5168
sI630
I5168
sI631
I5168
sI632
I5168
sI633
I5168
sI634
I5168
sI635
I5168
sI636
I5168
sI637
I5168
sI638
I5168
sI639
I5168
sI640
I5168
sI641
I5168
sI642
I5168
sI643
I5168
sI644
I5168
sI645
I5168
sI646
I5168
sI647
I5168
sI648
I5168
sI649
I5168
sI650
I5168
sI651
I5168
sI652
I5168
sI653
I5102
sI654
I5168
sI655
I5198
sI656
I5168
sI657
I5168
sI658
I5168
sI659
I5168
sI660
I5168
sI661
I5168
sI662
I5168
sI663
I5168
sI664
I5235
sI665
I5235
sI666
I5168
sI667
I5168
sI668
I5102
sI669
I5168
sI670
I5168
sI671
I5168
sI672
I5168
sI673
I5168
sI674
I5168
sI675
I5168
sI688
I5231
sI693
I5231
sI695
I5231
sI697
I5231
sI698
I5231
sI736
I5176
sI737
I5134
sI767
I3929
sI785
I3963
sI787
I4031
sI788
I4001
sI792
I3949
sI804
I3905
sI806
I3905
sI809
I4064
sI813
I3905
sI815
I3905
sI817
I3905
sI818
I3905
sI820
I3905
sI824
I4064
sI826
I3905
sI829
I3905
sI830
I3905
sI831
I3905
sI833
I3905
sI834
I3905
sI835
I3905
sI842
I3905
sI843
I3905
sI844
I3989
sI845
I3989
sI846
I3905
sI851
I3905
sI852
I3905
sI853
I3905
sI855
I3905
sI857
I3989
sI861
I3989
sI862
I3989
sI863
I3989
sI864
I3989
sI865
I3989
sI867
I3989
sI870
I4051
sI871
I3963
sI872
I3921
sI874
I3987
sI875
I4031
sI876
I4031
sI877
I4031
sI878
I4031
sI879
I3976
sI880
I3976
sI881
I3976
sI882
I3976
sI883
I4031
sI884
I3987
sI885
I4031
sI886
I4031
sI887
I3981
sI888
I3987
sI889
I3987
sI890
I3987
sI891
I3976
sI892
I3987
sI893
I3976
sI894
I3976
sI895
I4059
sI896
I4031
sI897
I3976
sI898
I4063
sI899
I3976
sI900
I3976
sI901
I3976
sI902
I4031
sI903
I4031
sI904
I4031
sI905
I4031
sI906
I3976
sI907
I4031
sI908
I4031
sI909
I3987
sI910
I4031
sI911
I4031
sI912
I3987
sI913
I3981
sI914
I3981
sI915
I4031
sI916
I3976
sI917
I4044
sI918
I4031
sI919
I4031
sI920
I4051
sI921
I4031
sI922
I3987
sI923
I4031
sI924
I4031
sI925
I4063
sI926
I4031
sI927
I3981
sI928
I4031
sI929
I3976
sI930
I4031
sI931
I3976
sI932
I3987
sI933
I3987
sI934
I4031
sI935
I4031
sI936
I4031
sI937
I4031
sI938
I4031
sI939
I4051
sI940
I3987
sI941
I4031
sI942
I3987
sI943
I3976
sI944
I3981
sI945
I4031
sI946
I3976
sI947
I3987
sI948
I3987
sI949
I4031
sI950
I3981
sI951
I3976
sI952
I3987
sI953
I4031
sI954
I3976
sI955
I4031
sI956
I3976
sI957
I3976
sI958
I4031
sI959
I4031
sI960
I4051
sI961
I4031
sI962
I3976
sI963
I3921
sI964
I3898
sI965
I3898
sI966
I3898
sI967
I3952
sI968
I3987
sI969
I3987
sI970
I4031
sI971
I4031
sI972
I4031
sI973
I3987
sI974
I3976
sI975
I3976
sI976
I4031
sI977
I4031
sI978
I4031
sI979
I4031
sI980
I3987
sI981
I3987
sI982
I4031
sI983
I3976
sI984
I3976
sI985
I4031
sI986
I3976
sI987
I3981
sI988
I4031
sI989
I4031
sI990
I3987
sI991
I4031
sI992
I3976
sI993
I3976
sI994
I3976
sI995
I3948
sI996
I4031
sI997
I3985
sI998
I4031
sI999
I3926
sI1000
I3976
sI1002
I3962
sI1003
I3917
sI1004
I3952
sI1005
I4009
sI1006
I3976
sI1007
I4063
sI1008
I4065
sI1009
I4065
sI1010
I4014
sI1011
I4068
sI1013
I4063
sI1014
I3966
sI1015
I4069
sI1016
I4063
sI1017
I4067
sI1018
I4067
sI1020
I3905
sI1021
I3941
sI1022
I4065
sI1023
I4063
sI1025
I3916
sI1026
I4031
sI1027
I3935
sI1028
I4017
sI1029
I4017
sI1030
I3935
sI1031
I4017
sI1032
I3914
sI1033
I4031
sI1034
I3989
sI1035
I3981
sI1036
I4051
sI1037
I4031
sI1038
I4061
sI1039
I3987
sI1040
I4031
sI1041
I4031
sI1042
I3976
sI1043
I3981
sI1044
I3962
sI1045
I3948
sI1046
I3948
sI1047
I3962
sI1048
I3948
sI1049
I3900
sI1050
I4026
sI1051
I3948
sI1052
I4031
sI1053
I3948
sI1054
I3948
sI1055
I3962
sI1056
I3948
sI1057
I3962
sI1058
I3987
sI1059
I3962
sI1060
I3962
sI1061
I3948
sI1062
I3962
sI1063
I3917
sI1064
I3948
sI1065
I4051
sI1066
I3985
sI1067
I3962
sI1068
I4044
sI1069
I3948
sI1070
I3962
sI1071
I3962
sI1072
I3948
sI1073
I4051
sI1074
I3962
sI1075
I3962
sI1076
I3962
sI1077
I3962
sI1078
I3948
sI1079
I3962
sI1080
I3962
sI1081
I3976
sI1082
I4051
sI1083
I3948
sI1084
I3962
sI1085
I3962
sI1086
I3948
sI1087
I3962
sI1088
I3962
sI1089
I3948
sI1090
I3962
sI1091
I3962
sI1092
I3962
sI1093
I3962
sI1094
I3962
sI1095
I4051
sI1096
I4031
sI1097
I3962
sI1098
I3962
sI1099
I3962
sI1100
I3962
sI1101
I3962
sI1102
I4051
sI1103
I4027
sI1104
I4027
sI1105
I3938
sI1106
I4027
sI1107
I4018
sI1108
I3910
sI1109
I4027
sI1110
I4027
sI1111
I3910
sI1112
I4027
sI1113
I4046
sI1114
I4046
sI1115
I3976
sI1116
I4027
sI1117
I4046
sI1118
I4027
sI1119
I3938
sI1120
I4018
sI1121
I4002
sI1122
I4027
sI1123
I4027
sI1124
I3969
sI1126
I3954
sI1127
I4045
sI1128
I4045
sI1133
I3917
sI1134
I4031
sI1135
I4033
sI1136
I3917
sI1137
I3917
sI1138
I3926
sI1139
I3917
sI1140
I3917
sI1141
I3917
sI1142
I3917
sI1144
I3917
sI1145
I3917
sI1146
I3946
sI1147
I3917
sI1149
I3917
sI1150
I3926
sI1151
I4013
sI1152
I4013
sI1153
I3903
sI1155
I4013
sI1156
I3903
sI1157
I4009
sI1158
I4013
sI1159
I3926
sI1161
I3945
sI1162
I3917
sI1163
I4013
sI1165
I3903
sI1167
I4013
sI1168
I4013
sI1169
I3917
sI1170
I3903
sI1171
I3917
sI1173
I3969
sI1174
I4054
sI1175
I4013
sI1176
I3898
sI1177
I3921
sI1178
I3905
sI1179
I3898
sI1180
I3921
sI1181
I3941
sI1182
I3941
sI1183
I3921
sI1184
I3941
sI1185
I3941
sI1186
I3905
sI1187
I3905
sI1188
I3905
sI1189
I3905
sI1190
I3905
sI1191
I4044
sI1192
I3905
sI1193
I3905
sI1194
I3905
sI1195
I3905
sI1196
I3905
sI1197
I3905
sI1198
I3905
sI1199
I3905
sI1200
I3905
sI1201
I4005
sI1202
I3905
sI1203
I3963
sI1204
I3941
sI1205
I3921
sI1206
I3990
sI1207
I3921
sI1208
I3905
sI1209
I3921
sI1210
I3941
sI1211
I3941
sI1212
I3941
sI1213
I3911
sI1214
I3941
sI1215
I4044
sI1216
I3905
sI1217
I4043
sI1218
I3921
sI1219
I3941
sI1220
I4044
sI1221
I3924
sI1222
I4043
sI1223
I4043
sI1224
I3905
sI1225
I3921
sI1226
I3921
sI1227
I3941
sI1228
I3905
sI1229
I3921
sI1230
I3905
sI1231
I4049
sI1232
I3941
sI1233
I3905
sI1234
I3905
sI1235
I4001
sI1236
I4053
sI1237
I4001
sI1239
I4001
sI1240
I4014
sI1241
I3896
sI1242
I4001
sI1243
I4014
sI1244
I4014
sI1245
I4014
sI1246
I4001
sI1247
I3930
sI1248
I3920
sI1249
I3920
sI1250
I4001
sI1251
I4014
sI1252
I4014
sI1253
I4053
sI1254
I4001
sI1255
I4014
sI1256
I4001
sI1257
I3920
sI1258
I4001
sI1259
I4014
sI1260
I4001
sI1261
I3930
sI1262
I3930
sI1263
I3930
sI1264
I4014
sI1265
I3896
sI1266
I3920
sI1267
I4014
sI1268
I3930
sI1270
I4014
sI1271
I3920
sI1272
I4001
sI1273
I3905
sI1274
I3930
sI1275
I4001
sI1276
I3916
sI1277
I4001
sI1278
I3920
sI1282
I3926
sI1283
I3913
sI1285
I3913
sI1286
I3913
sI1287
I3926
sI1288
I3926
sI1289
I4056
sI1290
I3926
sI1292
I3913
sI1293
I3913
sI1295
I4056
sI1296
I4056
sI1298
I3913
sI1299
I3914
sI1300
I4033
sI1301
I4004
sI1302
I3914
sI1303
I4023
sI1304
I3965
sI1305
I4055
sI1307
I4057
sI1308
I3914
sI1311
I3914
sI1312
I4056
sI1313
I3965
sI1314
I4023
sI1316
I4050
sI1317
I3914
sI1318
I3969
sI1319
I4050
sI1320
I3969
sI1321
I3914
sI1324
I4055
sI1326
I3962
sI1327
I3905
sI1328
I4061
sI1329
I3905
sI1330
I3919
sI1331
I3919
sI1332
I4030
sI1333
I4030
sI1334
I3919
sI1336
I3919
sI1337
I3919
sI1339
I3964
sI1340
I3905
sI1341
I3986
sI1343
I4061
sI1344
I3905
sI1345
I3905
sI1346
I3905
sI1347
I4061
sI1348
I4061
sI1349
I3905
sI1350
I3905
sI1351
I4064
sI1352
I3976
sI1353
I3905
sI1354
I3905
sI1355
I4061
sI1356
I4063
sI1358
I3934
sI1359
I3934
sI1360
I3934
sI1361
I3905
sI1362
I4061
sI1363
I4063
sI1364
I3986
sI1365
I3905
sI1366
I3986
sI1367
I3905
sI1368
I4063
sI1369
I3905
sI1370
I3905
sI1371
I3905
sI1373
I3986
sI1374
I3905
sI1375
I4061
sI1376
I4061
sI1377
I3905
sI1378
I4063
sI1379
I3905
sI1380
I4063
sI1381
I4061
sI1382
I3905
sI1383
I4061
sI1384
I4051
sI1385
I4031
sI1386
I4031
sI1387
I3976
sI1388
I3976
sI1389
I3916
sI1391
I3916
sI1392
I4042
sI1393
I3916
sI1394
I3916
sI1396
I3916
sI1397
I3916
sI1398
I4067
sI1399
I4067
sI1401
I3916
sI1402
I3916
sI1403
I3916
sI1404
I4067
sI1405
I3916
sI1406
I3916
sI1407
I3916
sI1408
I3916
sI1409
I4067
sI1410
I4067
sI1411
I4021
sI1412
I3916
sI1414
I4067
sI1415
I3916
sI1416
I4067
sI1417
I3916
sI1418
I4067
sI1419
I3916
sI1420
I4067
sI1421
I3916
sI1422
I3916
sI1423
I3916
sI1424
I4067
sI1425
I3916
sI1426
I3978
sI1427
I4021
sI1430
I4021
sI1431
I3916
sI1432
I3916
sI1433
I3916
sI1434
I3916
sI1435
I4067
sI1437
I3916
sI1438
I3916
sI1439
I3916
sI1440
I3916
sI1441
I3916
sI1442
I3916
sI1443
I3916
sI1444
I3916
sI1445
I3916
sI1446
I4067
sI1447
I4067
sI1448
I3916
sI1449
I4067
sI1450
I3916
sI1451
I3916
sI1452
I4067
sI1453
I3916
sI1454
I3916
sI1455
I3916
sI1456
I3916
sI1457
I3916
sI1458
I3916
sI1459
I3916
sI1460
I4021
sI1461
I4021
sI1462
I4067
sI1465
I4021
sI1466
I4058
sI1467
I4021
sI1468
I4021
sI1469
I4021
sI1471
I3916
sI1472
I3916
sI1473
I3916
sI1475
I4021
sI1476
I4001
sI1477
I3993
sI1478
I3993
sI1479
I4001
sI1480
I4060
sI1481
I4001
sI1482
I4060
sI1483
I4001
sI1484
I4060
sI1485
I4001
sI1486
I3939
sI1487
I4001
sI1488
I4001
sI1489
I4001
sI1490
I4001
sI1491
I4001
sI1492
I4001
sI1493
I4060
sI1494
I4001
sI1495
I4001
sI1496
I3961
sI1497
I4060
sI1498
I4060
sI1499
I4060
sI1500
I4060
sI1501
I4060
sI1502
I4001
sI1503
I4060
sI1510
I4031
sI1511
I4031
sI1512
I4031
sI1513
I4031
sI1546
I4055
sI1579
I6859
sI1701
I6670
sI1702
I6951
sI1703
I6945
sI1704
I6888
sI1705
I6951
sI1706
I6888
sI1708
I6888
sI1709
I6739
sI1711
I6888
sI1713
I6915
sI1714
I6951
sI1715
I6848
sI1716
I6739
sI1717
I6951
sI1720
I6739
sI1721
I6852
sI1723
I6951
sI1724
I6951
sI1726
I6945
sI1732
I6852
sI1734
I6888
sI1736
I6880
sI1737
I6888
sI1738
I6677
sI1741
I6951
sI1742
I6852
sI1744
I6842
sI1749
I6842
sI1750
I6901
sI1754
I6880
sI1755
I6915
sI1757
I6842
sI1758
I6951
sI1761
I6951
sI1766
I6880
sI1767
I6768
sI1768
I6915
sI1770
I6739
sI1771
I6945
sI1772
I6888
sI1773
I6888
sI1775
I6951
sI1776
I6945
sI1777
I6677
sI1779
I6951
sI1780
I6737
sI1781
I6739
sI1782
I6664
sI1783
I6915
sI1784
I6888
sI1785
I6852
sI1787
I6852
sI1788
I6919
sI1792
I6945
sI1793
I6951
sI1794
I6951
sI1796
I6951
sI1797
I6869
sI1799
I6852
sI1800
I6739
sI1801
I6951
sI1802
I6951
sI1803
I6951
sI1805
I6945
sI1807
I6664
sI1808
I6737
sI1809
I6951
sI1813
I6951
sI1815
I6852
sI1816
I6951
sI1820
I6951
sI1821
I6842
sI1824
I6739
sI1826
I6951
sI1827
I6737
sI1828
I6888
sI1829
I6852
sI1830
I6951
sI1832
I6945
sI1834
I6951
sI1835
I6951
sI1836
I6842
sI1838
I6721
sI1839
I6951
sI1841
I6880
sI1842
I6852
sI1844
I6739
sI1846
I6951
sI1848
I6728
sI1849
I6677
sI1851
I6951
sI1856
I6740
sI1862
I6829
sI1863
I6746
sI1865
I6746
sI1868
I6951
sI1869
I6888
sI1870
I6898
sI1871
I6768
sI1872
I6898
sI1873
I6888
sI1876
I6772
sI1879
I6829
sI1880
I6886
sI1881
I6886
sI1883
I6886
sI1885
I6829
sI1887
I6886
sI1889
I6772
sI1897
I6754
sI1900
I6829
sI1905
I6829
sI1906
I6732
sI1911
I6746
sI1914
I6886
sI1916
I6886
sI1920
I6829
sI1921
I6746
sI1924
I6746
sI1933
I6746
sI1935
I6754
sI1936
I6754
sI1937
I6829
sI1938
I6746
sI1943
I6750
sI1947
I6933
sI1948
I6933
sI1950
I6933
sI1951
I6933
sI1952
I6933
sI1953
I6933
sI1954
I6933
sI1955
I6933
sI1957
I6933
sI1958
I6933
sI1960
I6933
sI1962
I6730
sI1963
I6730
sI1964
I6730
sI1965
I6730
sI1966
I6730
sI1967
I6730
sI1968
I6730
sI1969
I6730
sI1970
I6730
sI1971
I6730
sI2216
I441
sI2217
I441
sI2218
I417
sI2219
I417
sI2220
I333
sI2221
I441
sI2222
I441
sI2224
I441
sI2225
I441
sI2226
I417
sI2227
I417
sI2228
I417
sI2229
I441
sI2230
I417
sI2231
I417
sI2232
I441
sI2233
I441
sI2234
I417
sI2235
I417
sI2236
I417
sI2237
I441
sI2238
I417
sI2239
I417
sI2240
I265
sI2241
I417
sI2242
I417
sI2243
I417
sI2244
I417
sI2245
I417
sI2246
I417
sI2247
I441
sI2248
I417
sI2249
I417
sI2250
I417
sI2251
I441
sI2252
I417
sI2253
I417
sI2255
I441
sI2256
I417
sI2257
I417
sI2258
I417
sI2259
I417
sI2260
I417
sI2261
I441
sI2262
I417
sI2263
I417
sI2264
I417
sI2265
I417
sI2266
I441
sI2267
I417
sI2268
I417
sI2269
I333
sI2270
I417
sI2271
I417
sI2272
I441
sI2273
I417
sI2274
I417
sI2275
I417
sI2276
I417
sI2277
I417
sI2278
I417
sI2279
I417
sI2280
I417
sI2281
I417
sI2282
I417
sI2283
I417
sI2284
I417
sI2285
I417
sI2286
I417
sI2287
I417
sI2288
I417
sI2289
I417
sI2290
I441
sI2291
I417
sI2292
I417
sI2293
I417
sI2294
I417
sI2295
I417
sI2296
I417
sI2297
I417
sI2298
I417
sI2299
I441
sI2300
I441
sI2301
I441
sI2302
I441
sI2303
I441
sI2304
I417
sI2305
I441
sI2306
I441
sI2307
I417
sI2308
I417
sI2309
I441
sI2310
I441
sI2311
I441
sI2312
I441
sI2313
I441
sI2314
I441
sI2315
I417
sI2316
I417
sI2317
I417
sI2318
I417
sI2319
I417
sI2320
I417
sI2321
I417
sI2322
I417
sI2323
I417
sI2324
I417
sI2325
I417
sI2326
I417
sI2327
I417
sI2328
I417
sI2329
I417
sI2330
I227
sI2331
I441
sI2332
I441
sI2333
I441
sI2334
I441
sI2335
I417
sI2336
I417
sI2337
I280
sI2338
I441
sI2339
I441
sI2340
I441
sI2341
I417
sI2342
I417
sI2343
I417
sI2344
I417
sI2345
I417
sI2346
I441
sI2347
I417
sI2348
I441
sI2349
I333
sI2350
I417
sI2351
I417
sI2352
I441
sI2353
I441
sI2354
I441
sI2355
I441
sI2356
I417
sI2357
I417
sI2358
I441
sI2359
I417
sI2360
I417
sI2361
I417
sI2362
I441
sI2363
I417
sI2364
I407
sI2365
I417
sI2366
I441
sI2367
I441
sI2368
I417
sI2369
I417
sI2370
I417
sI2371
I441
sI2372
I417
sI2373
I417
sI2374
I417
sI2375
I333
sI2376
I441
sI2377
I441
sI2378
I441
sI2379
I417
sI2380
I417
sI2381
I417
sI2382
I265
sI2383
I441
sI2384
I417
sI2385
I441
sI2386
I441
sI2387
I441
sI2388
I441
sI2389
I441
sI2390
I417
sI2391
I441
sI2392
I441
sI2393
I417
sI2394
I441
sI2395
I441
sI2396
I417
sI2397
I441
sI2398
I417
sI2399
I417
sI2400
I417
sI2401
I420
sI2402
I417
sI2403
I417
sI2404
I441
sI2405
I265
sI2406
I265
sI2407
I265
sI2408
I417
sI2409
I265
sI2410
I265
sI2411
I265
sI2412
I417
sI2413
I265
sI2414
I441
sI2415
I265
sI2416
I265
sI2417
I441
sI2418
I265
sI2419
I265
sI2420
I441
sI2421
I265
sI2422
I265
sI2423
I265
sI2424
I441
sI2425
I265
sI2426
I265
sI2427
I417
sI2428
I265
sI2429
I417
sI2430
I265
sI2431
I283
sI2432
I265
sI2433
I265
sI2434
I265
sI2435
I265
sI2436
I417
sI2437
I417
sI2438
I417
sI2439
I417
sI2440
I420
sI2441
I265
sI2442
I265
sI2443
I265
sI2444
I441
sI2445
I265
sI2446
I265
sI2447
I417
sI2448
I265
sI2449
I265
sI2450
I265
sI2451
I265
sI2452
I265
sI2453
I265
sI2454
I265
sI2455
I265
sI2456
I265
sI2457
I265
sI2458
I265
sI2459
I441
sI2460
I265
sI2461
I265
sI2462
I417
sI2463
I265
sI2464
I265
sI2465
I265
sI2466
I265
sI2467
I265
sI2468
I265
sI2469
I417
sI2470
I441
sI2471
I265
sI2472
I265
sI2473
I265
sI2474
I417
sI2475
I265
sI2476
I265
sI2477
I265
sI2478
I441
sI2479
I265
sI2480
I265
sI2481
I417
sI2482
I265
sI2483
I417
sI2484
I265
sI2485
I265
sI2486
I265
sI2487
I265
sI2488
I265
sI2489
I265
sI2490
I265
sI2491
I265
sI2492
I417
sI2493
I265
sI2494
I265
sI2495
I265
sI2496
I441
sI2497
I333
sI2498
I333
sI2499
I227
sI2500
I441
sI2501
I441
sI2502
I441
sI2503
I333
sI2504
I333
sI2505
I441
sI2506
I441
sI2507
I441
sI2508
I441
sI2509
I417
sI2510
I441
sI2511
I333
sI2512
I441
sI2513
I441
sI2514
I333
sI2515
I333
sI2516
I441
sI2517
I333
sI2518
I441
sI2519
I333
sI2520
I333
sI2521
I441
sI2522
I333
sI2523
I333
sI2524
I333
sI2525
I441
sI2526
I441
sI2527
I333
sI2528
I333
sI2529
I441
sI2530
I333
sI2531
I441
sI2532
I333
sI2533
I441
sI2534
I333
sI2535
I441
sI2536
I441
sI2537
I441
sI2538
I333
sI2539
I441
sI2540
I333
sI2541
I333
sI2542
I441
sI2543
I333
sI2544
I333
sI2545
I333
sI2546
I441
sI2547
I441
sI2548
I441
sI2549
I441
sI2550
I441
sI2551
I333
sI2552
I333
sI2553
I333
sI2554
I333
sI2555
I333
sI2556
I333
sI2557
I265
sI2558
I333
sI2559
I441
sI2560
I333
sI2561
I333
sI2562
I333
sI2563
I434
sI2564
I441
sI2565
I265
sI2566
I333
sI2567
I333
sI2568
I441
sI2569
I441
sI2570
I333
sI2571
I333
sI2572
I441
sI2573
I333
sI2574
I333
sI2575
I333
sI2576
I333
sI2577
I333
sI2578
I333
sI2579
I441
sI2580
I441
sI2581
I441
sI2582
I333
sI2583
I441
sI2584
I441
sI2585
I265
sI2586
I441
sI2587
I333
sI2588
I441
sI2589
I265
sI2590
I265
sI2591
I441
sI2592
I420
sI2593
I333
sI2594
I441
sI2595
I333
sI2596
I265
sI2597
I265
sI2598
I265
sI2599
I265
sI2600
I441
sI2601
I265
sI2602
I265
sI2603
I265
sI2604
I265
sI2605
I441
sI2606
I265
sI2607
I265
sI2608
I441
sI2609
I265
sI2610
I333
sI2611
I265
sI2612
I333
sI2613
I265
sI2614
I441
sI2615
I333
sI2616
I441
sI2617
I265
sI2618
I265
sI2619
I333
sI2620
I333
sI2621
I265
sI2622
I265
sI2623
I441
sI2624
I265
sI2625
I265
sI2626
I265
sI2627
I265
sI2628
I265
sI2629
I333
sI2630
I333
sI2631
I265
sI2632
I441
sI2633
I333
sI2634
I441
sI2635
I441
sI2636
I265
sI2637
I265
sI2638
I333
sI2639
I265
sI2640
I441
sI2641
I333
sI2642
I441
sI2643
I333
sI2644
I265
sI2645
I265
sI2646
I265
sI2647
I265
sI2648
I441
sI2649
I265
sI2650
I265
sI2651
I441
sI2652
I265
sI2653
I265
sI2654
I441
sI2655
I333
sI2656
I333
sI2657
I265
sI2658
I333
sI2659
I308
sI2660
I265
sI2661
I265
sI2662
I265
sI2663
I265
sI2664
I441
sI2665
I441
sI2666
I265
sI2667
I265
sI2668
I265
sI2669
I265
sI2670
I308
sI2671
I265
sI2672
I441
sI2673
I333
sI2674
I265
sI2675
I265
sI2676
I265
sI2677
I333
sI2678
I441
sI2679
I441
sI2680
I333
sI2681
I265
sI2682
I265
sI2683
I333
sI2684
I265
sI2685
I441
sI2686
I441
sI2687
I265
sI2688
I441
sI2689
I441
sI2690
I265
sI2691
I333
sI2692
I265
sI2693
I441
sI2694
I265
sI2695
I265
sI2696
I441
sI2697
I265
sI2698
I265
sI2699
I265
sI2700
I265
sI2701
I265
sI2702
I265
sI2703
I265
sI2704
I265
sI2705
I333
sI2706
I420
sI2707
I265
sI2708
I265
sI2709
I265
sI2710
I265
sI2711
I265
sI2712
I265
sI2713
I265
sI2714
I265
sI2715
I265
sI2716
I265
sI2717
I265
sI2718
I265
sI2719
I265
sI2720
I265
sI2721
I265
sI2722
I265
sI2723
I265
sI2724
I265
sI2725
I265
sI2726
I265
sI2727
I265
sI2728
I265
sI2729
I265
sI2730
I265
sI2731
I265
sI2732
I265
sI2733
I265
sI2734
I265
sI2735
I265
sI2736
I265
sI2737
I265
sI2738
I265
sI2739
I441
sI2740
I265
sI2741
I265
sI2742
I265
sI2743
I265
sI2744
I265
sI2745
I333
sI2746
I265
sI2747
I265
sI2748
I265
sI2749
I265
sI2750
I265
sI2751
I265
sI2752
I265
sI2753
I265
sI2754
I265
sI2755
I265
sI2756
I441
sI2757
I265
sI2758
I265
sI2759
I265
sI2760
I265
sI2761
I265
sI2762
I265
sI2763
I265
sI2764
I265
sI2765
I265
sI2766
I265
sI2767
I265
sI2768
I265
sI2769
I265
sI2770
I265
sI2771
I265
sI2772
I265
sI2773
I441
sI2774
I265
sI2775
I265
sI2776
I441
sI2777
I265
sI2778
I265
sI2779
I265
sI2780
I265
sI2781
I265
sI2782
I265
sI2783
I434
sI2784
I265
sI2785
I265
sI2786
I265
sI2787
I265
sI2788
I441
sI2789
I265
sI2790
I417
sI2791
I441
sI2792
I265
sI2793
I265
sI2794
I265
sI2795
I265
sI2796
I265
sI2797
I265
sI2798
I265
sI2799
I265
sI2800
I265
sI2801
I441
sI2802
I265
sI2803
I265
sI2804
I265
sI2805
I265
sI2806
I265
sI2808
I265
sI2809
I265
sI2810
I265
sI2811
I265
sI2812
I265
sI2813
I441
sI2814
I265
sI2815
I265
sI2816
I265
sI2817
I265
sI2818
I265
sI2819
I265
sI2820
I265
sI2821
I265
sI2822
I265
sI2823
I265
sI2824
I265
sI2825
I265
sI2826
I265
sI2827
I265
sI2828
I265
sI2829
I265
sI2830
I265
sI2831
I265
sI2832
I265
sI2833
I265
sI2834
I265
sI2835
I265
sI2836
I265
sI2837
I265
sI2838
I265
sI2839
I265
sI2840
I265
sI2841
I265
sI2842
I265
sI2843
I265
sI2844
I265
sI2845
I265
sI2846
I265
sI2847
I265
sI2848
I265
sI2849
I265
sI2850
I265
sI2851
I265
sI2852
I265
sI2853
I265
sI2854
I265
sI2855
I441
sI2856
I265
sI2857
I265
sI2858
I265
sI2859
I265
sI2860
I265
sI2861
I265
sI2862
I265
sI2863
I265
sI2864
I265
sI2865
I265
sI2866
I265
sI2867
I265
sI2868
I265
sI2869
I265
sI2870
I265
sI2871
I265
sI2872
I265
sI2873
I265
sI2874
I265
sI2875
I265
sI2876
I265
sI2877
I265
sI2878
I280
sI2879
I265
sI2880
I265
sI2881
I265
sI2882
I265
sI2883
I265
sI2884
I265
sI2885
I265
sI2886
I265
sI2887
I265
sI2888
I265
sI2889
I265
sI2890
I265
sI2891
I265
sI2892
I265
sI2893
I265
sI2894
I265
sI2895
I265
sI2896
I265
sI2897
I265
sI2898
I265
sI2899
I265
sI2900
I265
sI2901
I265
sI2902
I265
sI2903
I265
sI2904
I265
sI2905
I265
sI2906
I265
sI2907
I265
sI2908
I265
sI2909
I265
sI2910
I265
sI2911
I265
sI2912
I265
sI2913
I265
sI2914
I265
sI2915
I265
sI2916
I265
sI2917
I265
sI2918
I265
sI2919
I265
sI2920
I265
sI2921
I265
sI2922
I265
sI2923
I265
sI2924
I406
sI2925
I265
sI2926
I265
sI2927
I265
sI2928
I265
sI2929
I265
sI2930
I265
sI2931
I265
sI2932
I265
sI2933
I265
sI2934
I265
sI2935
I265
sI2936
I265
sI2937
I265
sI2938
I265
sI2939
I265
sI2940
I265
sI2941
I265
sI2942
I265
sI2943
I265
sI2944
I265
sI2945
I265
sI2946
I265
sI2947
I265
sI2948
I265
sI2949
I265
sI2950
I265
sI2951
I265
sI2952
I265
sI2953
I265
sI2954
I265
sI2955
I227
sI2956
I265
sI2957
I265
sI2958
I265
sI2959
I265
sI2960
I265
sI2961
I265
sI2962
I265
sI2963
I265
sI2964
I265
sI2965
I265
sI2966
I265
sI2967
I265
sI2968
I265
sI2969
I265
sI2970
I265
sI2971
I265
sI2972
I265
sI2973
I265
sI2974
I265
sI2976
I265
sI2977
I265
sI2978
I265
sI2979
I265
sI2980
I265
sI2981
I265
sI2982
I265
sI2983
I265
sI2984
I265
sI2985
I265
sI2986
I265
sI2987
I280
sI2988
I265
sI2989
I265
sI2990
I265
sI2991
I265
sI2992
I265
sI2993
I265
sI2994
I265
sI2995
I265
sI2996
I265
sI2997
I265
sI2998
I280
sI2999
I265
sI3000
I265
sI3001
I265
sI3002
I265
sI3003
I265
sI3004
I265
sI3005
I265
sI3006
I265
sI3007
I265
sI3008
I265
sI3009
I265
sI3010
I265
sI3011
I265
sI3012
I265
sI3013
I265
sI3014
I265
sI3015
I265
sI3016
I265
sI3017
I265
sI3018
I265
sI3019
I265
sI3020
I265
sI3021
I265
sI3022
I265
sI3023
I265
sI3024
I265
sI3025
I420
sI3026
I265
sI3027
I265
sI3028
I265
sI3029
I265
sI3030
I265
sI3031
I265
sI3032
I265
sI3033
I283
sI3034
I265
sI3035
I265
sI3036
I265
sI3037
I265
sI3038
I265
sI3039
I265
sI3040
I265
sI3041
I265
sI3042
I265
sI3043
I265
sI3044
I265
sI3045
I265
sI3046
I265
sI3047
I265
sI3048
I265
sI3049
I265
sI3050
I265
sI3051
I265
sI3052
I265
sI3053
I265
sI3054
I441
sI3055
I265
sI3056
I265
sI3057
I265
sI3058
I265
sI3059
I265
sI3060
I265
sI3061
I265
sI3062
I265
sI3063
I265
sI3064
I265
sI3065
I265
sI3066
I265
sI3067
I340
sI3068
I265
sI3069
I265
sI3070
I265
sI3071
I265
sI3072
I265
sI3073
I340
sI3074
I265
sI3075
I265
sI3076
I265
sI3077
I265
sI3078
I265
sI3079
I265
sI3080
I265
sI3081
I280
sI3082
I265
sI3083
I265
sI3084
I265
sI3085
I265
sI3086
I265
sI3087
I265
sI3088
I265
sI3089
I265
sI3090
I265
sI3091
I265
sI3092
I265
sI3093
I265
sI3094
I265
sI3095
I265
sI3096
I265
sI3097
I265
sI3098
I265
sI3099
I265
sI3100
I265
sI3101
I280
sI3102
I417
sI3103
I265
sI3104
I265
sI3105
I265
sI3106
I265
sI3107
I265
sI3108
I265
sI3109
I265
sI3110
I265
sI3111
I265
sI3112
I265
sI3113
I265
sI3114
I265
sI3115
I420
sI3116
I265
sI3117
I265
sI3118
I265
sI3119
I265
sI3120
I265
sI3121
I265
sI3122
I265
sI3123
I265
sI3124
I265
sI3125
I265
sI3126
I265
sI3127
I265
sI3128
I265
sI3129
I265
sI3131
I265
sI3132
I265
sI3133
I265
sI3134
I265
sI3135
I265
sI3136
I265
sI3137
I265
sI3138
I265
sI3139
I265
sI3140
I265
sI3141
I265
sI3142
I265
sI3143
I265
sI3144
I265
sI3145
I265
sI3146
I265
sI3147
I265
sI3148
I265
sI3149
I265
sI3150
I265
sI3151
I265
sI3152
I265
sI3153
I265
sI3154
I265
sI3155
I265
sI3156
I265
sI3157
I265
sI3158
I265
sI3159
I265
sI3160
I265
sI3161
I265
sI3162
I265
sI3163
I265
sI3164
I265
sI3165
I265
sI3166
I265
sI3167
I265
sI3168
I283
sI3169
I265
sI3170
I265
sI3171
I265
sI3172
I265
sI3173
I265
sI3174
I265
sI3175
I265
sI3176
I441
sI3177
I265
sI3178
I265
sI3179
I265
sI3180
I265
sI3181
I265
sI3182
I265
sI3183
I265
sI3184
I265
sI3185
I265
sI3186
I265
sI3187
I265
sI3188
I265
sI3189
I265
sI3190
I265
sI3191
I265
sI3192
I265
sI3193
I265
sI3194
I265
sI3195
I265
sI3196
I265
sI3197
I265
sI3198
I265
sI3199
I265
sI3200
I265
sI3201
I265
sI3202
I265
sI3203
I265
sI3204
I265
sI3205
I265
sI3206
I265
sI3207
I265
sI3208
I265
sI3209
I265
sI3210
I283
sI3211
I308
sI3212
I265
sI3213
I280
sI3214
I265
sI3215
I308
sI3216
I434
sI3217
I265
sI3218
I265
sI3219
I265
sI3220
I265
sI3221
I308
sI3222
I265
sI3223
I265
sI3224
I308
sI3225
I308
sI3226
I265
sI3227
I265
sI3228
I265
sI3229
I265
sI3230
I265
sI3231
I308
sI3232
I265
sI3233
I265
sI3234
I308
sI3235
I265
sI3236
I265
sI3237
I308
sI3238
I265
sI3239
I308
sI3240
I308
sI3241
I265
sI3242
I265
sI3243
I265
sI3244
I265
sI3245
I308
sI3246
I308
sI3247
I265
sI3248
I308
sI3249
I420
sI3250
I308
sI3251
I308
sI3252
I308
sI3253
I308
sI3254
I265
sI3255
I265
sI3256
I265
sI3257
I308
sI3258
I265
sI3259
I265
sI3260
I308
sI3261
I308
sI3262
I265
sI3264
I265
sI3265
I265
sI3266
I308
sI3267
I308
sI3268
I308
sI3269
I308
sI3270
I308
sI3271
I308
sI3272
I265
sI3273
I308
sI3274
I308
sI3275
I308
sI3276
I308
sI3277
I308
sI3278
I308
sI3279
I308
sI3280
I265
sI3281
I308
sI3282
I265
sI3283
I308
sI3284
I265
sI3285
I333
sI3286
I308
sI3287
I308
sI3288
I308
sI3289
I308
sI3290
I308
sI3291
I308
sI3292
I265
sI3293
I308
sI3294
I308
sI3295
I308
sI3296
I308
sI3297
I308
sI3298
I434
sI3299
I308
sI3300
I308
sI3301
I308
sI3302
I420
sI3303
I308
sI3304
I308
sI3305
I265
sI3306
I308
sI3307
I265
sI3308
I308
sI3309
I308
sI3310
I265
sI3311
I308
sI3312
I308
sI3313
I308
sI3314
I308
sI3315
I308
sI3316
I265
sI3317
I308
sI3318
I265
sI3319
I265
sI3320
I308
sI3321
I420
sI3322
I265
sI3323
I265
sI3324
I333
sI3325
I265
sI3326
I265
sI3327
I308
sI3328
I308
sI3329
I308
sI3330
I308
sI3331
I308
sI3332
I308
sI3333
I265
sI3334
I308
sI3335
I308
sI3336
I265
sI3337
I265
sI3338
I308
sI3339
I308
sI3340
I308
sI3341
I308
sI3342
I308
sI3343
I265
sI3344
I265
sI3345
I434
sI3346
I308
sI3347
I434
sI3348
I434
sI3349
I420
sI3350
I308
sI3351
I434
sI3352
I227
sI3353
I434
sI3354
I434
sI3356
I434
sI3357
I434
sI3359
I434
sI3360
I420
sI3361
I420
sI3362
I420
sI3363
I420
sI3364
I420
sI3365
I420
sI3366
I420
sI3367
I420
sI3368
I420
sI3369
I420
sI3370
I434
sI3371
I434
sI3372
I420
sI3373
I434
sI3374
I434
sI3375
I434
sI3376
I308
sI3377
I434
sI3378
I308
sI3379
I434
sI3380
I434
sI3381
I308
sI3382
I434
sI3383
I434
sI3384
I434
sI3385
I434
sI3386
I434
sI3387
I434
sI3388
I434
sI3389
I434
sI3390
I420
sI3391
I420
sI3392
I420
sI3393
I308
sI3394
I420
sI3395
I420
sI3396
I420
sI3397
I420
sI3398
I420
sI3399
I420
sI3400
I434
sI3401
I434
sI3402
I308
sI3403
I434
sI3404
I308
sI3405
I434
sI3406
I434
sI3407
I434
sI3408
I434
sI3409
I308
sI3410
I434
sI3411
I308
sI3412
I434
sI3413
I308
sI3414
I434
sI3415
I308
sI3416
I308
sI3417
I434
sI3418
I434
sI3419
I434
sI3420
I308
sI3421
I308
sI3422
I434
sI3423
I434
sI3424
I308
sI3425
I308
sI3426
I308
sI3427
I434
sI3428
I227
sI3429
I434
sI3430
I434
sI3431
I434
sI3432
I308
sI3433
I308
sI3434
I420
sI3435
I420
sI3436
I420
sI3437
I420
sI3438
I420
sI3439
I420
sI3440
I420
sI3441
I434
sI3442
I434
sI3443
I420
sI3444
I308
sI3445
I420
sI3446
I420
sI3447
I420
sI3448
I308
sI3449
I434
sI3451
I308
sI3452
I434
sI3453
I420
sI3454
I420
sI3455
I420
sI3456
I434
sI3457
I420
sI3458
I420
sI3459
I420
sI3460
I420
sI3461
I434
sI3462
I434
sI3463
I434
sI3464
I420
sI3465
I420
sI3466
I434
sI3467
I434
sI3468
I420
sI3469
I420
sI3470
I420
sI3471
I420
sI3472
I420
sI3473
I420
sI3474
I434
sI3475
I420
sI3476
I434
sI3477
I308
sI3478
I308
sI3479
I308
sI3480
I434
sI3481
I434
sI3482
I308
sI3483
I434
sI3484
I434
sI3485
I308
sI3486
I420
sI3487
I406
sI3488
I406
sI3489
I434
sI3490
I434
sI3491
I420
sI3492
I420
sI3493
I434
sI3494
I434
sI3495
I420
sI3496
I420
sI3497
I420
sI3498
I420
sI3499
I420
sI3500
I420
sI3501
I420
sI3502
I420
sI3503
I434
sI3504
I420
sI3505
I420
sI3507
I434
sI3508
I420
sI3509
I434
sI3510
I420
sI3511
I420
sI3512
I420
sI3513
I420
sI3514
I434
sI3515
I420
sI3516
I434
sI3517
I420
sI3518
I434
sI3519
I434
sI3520
I434
sI3521
I434
sI3522
I434
sI3523
I434
sI3524
I434
sI3525
I434
sI3526
I434
sI3527
I434
sI3528
I420
sI3530
I420
sI3531
I420
sI3532
I420
sI3533
I420
sI3534
I420
sI3535
I420
sI3536
I420
sI3537
I420
sI3538
I420
sI3539
I420
sI3540
I420
sI3541
I420
sI3542
I406
sI3543
I420
sI3544
I420
sI3545
I420
sI3546
I420
sI3547
I420
sI3548
I265
sI3549
I420
sI3550
I420
sI3551
I420
sI3552
I420
sI3553
I406
sI3554
I420
sI3555
I420
sI3556
I420
sI3557
I420
sI3558
I420
sI3559
I420
sI3560
I420
sI3561
I420
sI3562
I420
sI3563
I420
sI3564
I420
sI3565
I420
sI3566
I420
sI3567
I420
sI3568
I420
sI3569
I420
sI3570
I420
sI3571
I420
sI3572
I420
sI3573
I420
sI3574
I420
sI3575
I420
sI3576
I420
sI3577
I420
sI3578
I420
sI3579
I420
sI3580
I420
sI3581
I420
sI3582
I420
sI3583
I420
sI3584
I420
sI3585
I420
sI3586
I420
sI3587
I420
sI3588
I420
sI3589
I420
sI3590
I420
sI3591
I420
sI3592
I420
sI3593
I420
sI3594
I420
sI3595
I420
sI3596
I420
sI3597
I420
sI3598
I420
sI3599
I420
sI3600
I420
sI3601
I420
sI3602
I420
sI3603
I420
sI3604
I420
sI3605
I420
sI3606
I420
sI3607
I420
sI3608
I420
sI3609
I420
sI3610
I420
sI3611
I420
sI3612
I420
sI3613
I420
sI3614
I420
sI3615
I420
sI3616
I420
sI3617
I420
sI3618
I420
sI3619
I420
sI3620
I420
sI3621
I420
sI3622
I420
sI3623
I420
sI3624
I420
sI3625
I420
sI3626
I420
sI3627
I420
sI3628
I420
sI3629
I420
sI3630
I420
sI3631
I420
sI3632
I420
sI3633
I420
sI3634
I420
sI3635
I420
sI3636
I420
sI3637
I420
sI3638
I420
sI3639
I420
sI3640
I420
sI3641
I420
sI3642
I420
sI3643
I420
sI3644
I420
sI3645
I420
sI3646
I420
sI3647
I420
sI3648
I420
sI3649
I420
sI3650
I252
sI3651
I420
sI3652
I420
sI3653
I420
sI3654
I420
sI3655
I420
sI3656
I420
sI3657
I420
sI3658
I420
sI3659
I420
sI3660
I420
sI3661
I420
sI3662
I420
sI3663
I420
sI3664
I420
sI3665
I420
sI3666
I420
sI3667
I420
sI3668
I420
sI3669
I420
sI3670
I420
sI3671
I420
sI3672
I420
sI3673
I420
sI3674
I420
sI3675
I420
sI3676
I420
sI3677
I420
sI3678
I420
sI3679
I420
sI3680
I420
sI3681
I420
sI3682
I420
sI3683
I420
sI3684
I420
s.