(dp1
I55
I5123
sI96
I5135
sI115
I5152
sI116
I5207
sI117
I5181
sI118
I5179
sI119
I5112
sI120
I5115
sI121
I5115
sI122
I5168
sI123
I5168
sI124
I5168
sI125
I5179
sI126
I5178
sI127
I5168
sI128
I5115
sI129
I5168
sI130
I5115
sI131
I5174
sI132
I5174
sI133
I5168
sI134
I5115
sI135
I5115
sI136
I5179
sI137
I5182
sI138
I5115
sI139
I5168
sI140
I5115
sI141
I5168
sI142
I5168
sI143
I5168
sI144
I5131
sI145
I5115
sI146
I5115
sI147
I5115
sI148
I5115
sI149
I5115
sI150
I5182
sI151
I5115
sI152
I5115
sI153
I5115
sI154
I5115
sI155
I5181
sI156
I5174
sI157
I5168
sI158
I5168
sI159
I5115
sI160
I5112
sI161
I5168
sI162
I5115
sI163
I5168
sI164
I5168
sI165
I5178
sI166
I5115
sI167
I5168
sI168
I5168
sI169
I5168
sI170
I5168
sI171
I5168
sI172
I5168
sI173
I5168
sI174
I5102
sI175
I5168
sI176
I5112
sI177
I5112
sI178
I5185
sI179
I5185
sI180
I5185
sI181
I5185
sI182
I5163
sI183
I5168
sI184
I5112
sI185
I5163
sI186
I5155
sI187
I5120
sI188
I5155
sI189
I5135
sI190
I5155
sI191
I5155
sI192
I5155
sI193
I5119
sI194
I5119
sI196
I5124
sI197
I5124
sI198
I5124
sI199
I5124
sI200
I5231
sI201
I5231
sI202
I5231
sI203
I5169
sI204
I5124
sI205
I5124
sI206
I5154
sI207
I5154
sI208
I5154
sI209
I5154
sI210
I5154
sI211
I5154
sI212
I5154
sI213
I5149
sI215
I5228
sI216
I5149
sI217
I5228
sI218
I5175
sI219
I5140
sI220
I5154
sI221
I5140
sI222
I5219
sI223
I5216
sI224
I5140
sI225
I5149
sI226
I5154
sI227
I5149
sI228
I5194
sI229
I5132
sI230
I5154
sI231
I5154
sI232
I5154
sI233
I5132
sI234
I5149
sI235
I5149
sI236
I5154
sI237
I5154
sI238
I5228
sI239
I5154
sI240
I5132
sI241
I5154
sI242
I5149
sI243
I5228
sI244
I5154
sI245
I5228
sI246
I5140
sI247
I5114
sI248
I5099
sI249
I5138
sI250
I5099
sI251
I5138
sI252
I5099
sI253
I5099
sI254
I5175
sI255
I5111
sI256
I5146
sI260
I5146
sI263
I5107
sI264
I5146
sI265
I5146
sI267
I5169
sI269
I5107
sI276
I5146
sI277
I5107
sI280
I5146
sI284
I5216
sI286
I5107
sI294
I5146
sI295
I5146
sI296
I5146
sI297
I5107
sI303
I5146
sI305
I5146
sI306
I5146
sI330
I5098
sI351
I5105
sI354
I5167
sI356
I5207
sI358
I5206
sI365
I5120
sI366
I5120
sI367
I5120
sI368
I5168
sI369
I5120
sI370
I5228
sI371
I5120
sI372
I5217
sI373
I5120
sI375
I5120
sI376
I5217
sI377
I5168
sI378
I5120
sI379
I5217
sI380
I5217
sI381
I5120
sI382
I5217
sI383
I5120
sI385
I5120
sI386
I5217
sI387
I5217
sI388
I5120
sI389
I5120
sI390
I5120
sI391
I5120
sI392
I5120
sI393
I5120
sI394
I5120
sI395
I5217
sI396
I5217
sI397
I5217
sI398
I5120
sI399
I5217
sI400
I5120
sI401
I5120
sI402
I5120
sI403
I5120
sI404
I5120
sI405
I5120
sI406
I5120
sI407
I5217
sI408
I5217
sI409
I5120
sI410
I5217
sI411
I5099
sI412
I5120
sI413
I5120
sI414
I5120
sI415
I5120
sI416
I5217
sI417
I5120
sI418
I5217
sI419
I5120
sI420
I5120
sI421
I5120
sI422
I5120
sI423
I5217
sI424
I5120
sI425
I5217
sI426
I5217
sI427
I5217
sI428
I5120
sI429
I5120
sI430
I5217
sI431
I5161
sI432
I5120
sI433
I5217
sI434
I5217
sI435
I5120
sI436
I5120
sI437
I5120
sI438
I5120
sI439
I5120
sI440
I5120
sI441
I5120
sI442
I5120
sI443
I5120
sI444
I5120
sI445
I5120
sI446
I5120
sI447
I5120
sI448
I5120
sI449
I5120
sI450
I5120
sI451
I5217
sI452
I5120
sI453
I5217
sI454
I5217
sI455
I5120
sI456
I5120
sI457
I5217
sI458
I5120
sI459
I5217
sI460
I5120
sI462
I5120
sI463
I5120
sI464
I5120
sI465
I5217
sI466
I5120
sI467
I5120
sI468
I5120
sI469
I5120
sI470
I5217
sI471
I5120
sI472
I5120
sI473
I5120
sI474
I5120
sI475
I5217
sI476
I5120
sI477
I5217
sI478
I5217
sI479
I5120
sI480
I5217
sI481
I5217
sI482
I5120
sI483
I5217
sI484
I5217
sI485
I5217
sI486
I5120
sI487
I5217
sI488
I5120
sI489
I5120
sI490
I5120
sI491
I5120
sI492
I5120
sI493
I5120
sI494
I5217
sI495
I5120
sI496
I5217
sI497
I5120
sI498
I5120
sI499
I5120
sI501
I5102
sI502
I5131
sI503
I5131
sI504
I5131
sI505
I5102
sI506
I5102
sI507
I5102
sI508
I5102
sI509
I5102
sI510
I5102
sI511
I5131
sI512
I5114
sI513
I5102
sI514
I5102
sI515
I5102
sI516
I5131
sI517
I5131
sI518
I5102
sI519
I5102
sI520
I5102
sI521
I5102
sI522
I5102
sI523
I5102
sI524
I5102
sI525
I5102
sI526
I5102
sI527
I5102
sI528
I5102
sI529
I5102
sI530
I5102
sI531
I5102
sI532
I5102
sI533
I5102
sI534
I5102
sI535
I5102
sI536
I5102
sI537
I5102
sI538
I5102
sI539
I5102
sI540
I5102
sI541
I5102
sI542
I5102
sI543
I5102
sI544
I5102
sI545
I5102
sI546
I5102
sI547
I5102
sI548
I5102
sI549
I5102
sI550
I5114
sI551
I5102
sI553
I5169
sI554
I5107
sI555
I5215
sI556
I5121
sI557
I5169
sI558
I5169
sI559
I5169
sI560
I5169
sI561
I5169
sI562
I5169
sI564
I5169
sI565
I5107
sI566
I5169
sI567
I5107
sI568
I5107
sI569
I5169
sI607
I5168
sI608
I5168
sI609
I5168
sI610
I5168
sI611
I5168
sI612
I5168
sI613
I5168
sI614
I5168
sI615
I5168
sI616
I5168
sI617
I5168
sI618
I5168
sI619
I5168
sI620
I5168
sI621
I5168
sI622
I5168
sI623
I5168
sI624
I5168
sI625
I5168
sI626
I5168
sI627
I5168
sI628
I5168
sI629
I5168
sI630
I5168
sI631
I5168
sI632
I5168
sI633
I5168
sI634
I5168
sI635
I5168
sI636
I5168
sI637
I5168
sI638
I5168
sI639
I5168
sI640
I5168
sI641
I5168
sI642
I5168
sI643
I5168
sI644
I5168
sI645
I5168
sI646
I5168
sI647
I5168
sI648
I5168
sI649
I5168
sI650
I5168
sI651
I5168
sI652
I5168
sI653
I5102
sI654
I5168
sI655
I5198
sI656
I5168
sI657
I5168
sI658
I5168
sI659
I5168
sI660
I5168
sI661
I5168
sI662
I5168
sI663
I5168
sI664
I5235
sI665
I5235
sI666
I5168
sI667
I5168
sI668
I5102
sI669
I5168
sI670
I5168
sI671
I5168
sI672
I5168
sI673
I5168
sI674
I5168
sI675
I5168
sI688
I5231
sI693
I5231
sI695
I5231
sI697
I5231
sI698
I5231
sI736
I5176
sI737
I5134
sI767
I3929
sI785
I3963
sI787
I4031
sI788
I4001
sI792
I3949
sI804
I3905
sI806
I3905
sI809
I4064
sI813
I3905
sI815
I3905
sI817
I3905
sI818
I3905
sI820
I3905
sI824
I4064
sI826
I3905
sI829
I3905
sI830
I3905
sI831
I3905
sI833
I3905
sI834
I3905
sI835
I3905
sI842
I3905
sI843
I3905
sI844
I3989
sI845
I3989
sI846
I3905
sI851
I3905
sI852
I3905
sI853
I3905
sI855
I3905
sI857
I3989
sI861
I3989
sI862
I3989
sI863
I3989
sI864
I3989
sI865
I3989
sI867
I3989
sI870
I4051
sI871
I3963
sI872
I3921
sI874
I3987
sI875
I4031
sI876
I4031
sI877
I4031
sI878
I4031
sI879
I3976
sI880
I3976
sI881
I3976
sI882
I3976
sI883
I4031
sI884
I3987
sI885
I4031
sI886
I4031
sI887
I3981
sI888
I3987
sI889
I3987
sI890
I3987
sI891
I3976
sI892
I3987
sI893
I3976
sI894
I3976
sI895
I4059
sI896
I4031
sI897
I3976
sI898
I4063
sI899
I3976
sI900
I3976
sI901
I3976
sI902
I4031
sI903
I4031
sI904
I4031
sI905
I4031
sI906
I3976
sI907
I4031
sI908
I4031
sI909
I3987
sI910
I4031
sI911
I4031
sI912
I3987
sI913
I3981
sI914
I3981
sI915
I4031
sI916
I3976
sI917
I4044
sI918
I4031
sI919
I4031
sI920
I4051
sI921
I4031
sI922
I3987
sI923
I4031
sI924
I4031
sI925
I4063
sI926
I4031
sI927
I3981
sI928
I4031
sI929
I3976
sI930
I4031
sI931
I3976
sI932
I3987
sI933
I3987
sI934
I4031
sI935
I4031
sI936
I4031
sI937
I4031
sI938
I4031
sI939
I4051
sI940
I3987
sI941
I4031
sI942
I3987
sI943
I3976
sI944
I3981
sI945
I4031
sI946
I3976
sI947
I3987
sI948
I3987
sI949
I4031
sI950
I3981
sI951
I3976
sI952
I3987
sI953
I4031
sI954
I3976
sI955
I4031
sI956
I3976
sI957
I3976
sI958
I4031
sI959
I4031
sI960
I4051
sI961
I4031
sI962
I3976
sI963
I3921
sI964
I3898
sI965
I3898
sI966
I3898
sI967
I3952
sI968
I3987
sI969
I3987
sI970
I4031
sI971
I4031
sI972
I4031
sI973
I3987
sI974
I3976
sI975
I3976
sI976
I4031
sI977
I4031
sI978
I4031
sI979
I4031
sI980
I3987
sI981
I3987
sI982
I4031
sI983
I3976
sI984
I3976
sI985
I4031
sI986
I3976
sI987
I3981
sI988
I4031
sI989
I4031
sI990
I3987
sI991
I4031
sI992
I3976
sI993
I3976
sI994
I3976
sI995
I3948
sI996
I4031
sI997
I3985
sI998
I4031
sI999
I3926
sI1000
I3976
sI1002
I3962
sI1003
I3917
sI1004
I3952
sI1005
I4009
sI1006
I3976
sI1007
I4063
sI1008
I4065
sI1009
I4065
sI1010
I4014
sI1011
I4068
sI1013
I4063
sI1014
I3966
sI1015
I4069
sI1016
I4063
sI1017
I4067
sI1018
I4067
sI1020
I3905
sI1021
I3941
sI1022
I4065
sI1023
I4063
sI1025
I3916
sI1026
I4031
sI1027
I3935
sI1028
I4017
sI1029
I4017
sI1030
I3935
sI1031
I4017
sI1032
I3914
sI1033
I4031
sI1034
I3989
sI1035
I3981
sI1036
I4051
sI1037
I4031
sI1038
I4061
sI1039
I3987
sI1040
I4031
sI1041
I4031
sI1042
I3976
sI1043
I3981
sI1044
I3962
sI1045
I3948
sI1046
I3948
sI1047
I3962
sI1048
I3948
sI1049
I3900
sI1050
I4026
sI1051
I3948
sI1052
I4031
sI1053
I3948
sI1054
I3948
sI1055
I3962
sI1056
I3948
sI1057
I3962
sI1058
I3987
sI1059
I3962
sI1060
I3962
sI1061
I3948
sI1062
I3962
sI1063
I3917
sI1064
I3948
sI1065
I4051
sI1066
I3985
sI1067
I3962
sI1068
I4044
sI1069
I3948
sI1070
I3962
sI1071
I3962
sI1072
I3948
sI1073
I4051
sI1074
I3962
sI1075
I3962
sI1076
I3962
sI1077
I3962
sI1078
I3948
sI1079
I3962
sI1080
I3962
sI1081
I3976
sI1082
I4051
sI1083
I3948
sI1084
I3962
sI1085
I3962
sI1086
I3948
sI1087
I3962
sI1088
I3962
sI1089
I3948
sI1090
I3962
sI1091
I3962
sI1092
I3962
sI1093
I3962
sI1094
I3962
sI1095
I4051
sI1096
I4031
sI1097
I3962
sI1098
I3962
sI1099
I3962
sI1100
I3962
sI1101
I3962
sI1102
I4051
sI1103
I4027
sI1104
I4027
sI1105
I3938
sI1106
I4027
sI1107
I4018
sI1108
I3910
sI1109
I4027
sI1110
I4027
sI1111
I3910
sI1112
I4027
sI1113
I4046
sI1114
I4046
sI1115
I3976
sI1116
I4027
sI1117
I4046
sI1118
I4027
sI1119
I3938
sI1120
I4018
sI1121
I4002
sI1122
I4027
sI1123
I4027
sI1124
I3969
sI1126
I3954
sI1127
I4045
sI1128
I4045
sI1133
I3917
sI1134
I4031
sI1135
I4033
sI1136
I3917
sI1137
I3917
sI1138
I3926
sI1139
I3917
sI1140
I3917
sI1141
I3917
sI1142
I3917
sI1144
I3917
sI1145
I3917
sI1146
I3946
sI1147
I3917
sI1149
I3917
sI1150
I3926
sI1151
I4013
sI1152
I4013
sI1153
I3903
sI1155
I4013
sI1156
I3903
sI1157
I4009
sI1158
I4013
sI1159
I3926
sI1161
I3945
sI1162
I3917
sI1163
I4013
sI1165
I3903
sI1167
I4013
sI1168
I4013
sI1169
I3917
sI1170
I3903
sI1171
I3917
sI1173
I3969
sI1174
I4054
sI1175
I4013
sI1176
I3898
sI1177
I3921
sI1178
I3905
sI1179
I3898
sI1180
I3921
sI1181
I3941
sI1182
I3941
sI1183
I3921
sI1184
I3941
sI1185
I3941
sI1186
I3905
sI1187
I3905
sI1188
I3905
sI1189
I3905
sI1190
I3905
sI1191
I4044
sI1192
I3905
sI1193
I3905
sI1194
I3905
sI1195
I3905
sI1196
I3905
sI1197
I3905
sI1198
I3905
sI1199
I3905
sI1200
I3905
sI1201
I4005
sI1202
I3905
sI1203
I3963
sI1204
I3941
sI1205
I3921
sI1206
I3990
sI1207
I3921
sI1208
I3905
sI1209
I3921
sI1210
I3941
sI1211
I3941
sI1212
I3941
sI1213
I3911
sI1214
I3941
sI1215
I4044
sI1216
I3905
sI1217
I4043
sI1218
I3921
sI1219
I3941
sI1220
I4044
sI1221
I3924
sI1222
I4043
sI1223
I4043
sI1224
I3905
sI1225
I3921
sI1226
I3921
sI1227
I3941
sI1228
I3905
sI1229
I3921
sI1230
I3905
sI1231
I4049
sI1232
I3941
sI1233
I3905
sI1234
I3905
sI1235
I4001
sI1236
I4053
sI1237
I4001
sI1239
I4001
sI1240
I4014
sI1241
I3896
sI1242
I4001
sI1243
I4014
sI1244
I4014
sI1245
I4014
sI1246
I4001
sI1247
I3930
sI1248
I3920
sI1249
I3920
sI1250
I4001
sI1251
I4014
sI1252
I4014
sI1253
I4053
sI1254
I4001
sI1255
I4014
sI1256
I4001
sI1257
I3920
sI1258
I4001
sI1259
I4014
sI1260
I4001
sI1261
I3930
sI1262
I3930
sI1263
I3930
sI1264
I4014
sI1265
I3896
sI1266
I3920
sI1267
I4014
sI1268
I3930
sI1270
I4014
sI1271
I3920
sI1272
I4001
sI1273
I3905
sI1274
I3930
sI1275
I4001
sI1276
I3916
sI1277
I4001
sI1278
I3920
sI1282
I3926
sI1283
I3913
sI1285
I3913
sI1286
I3913
sI1287
I3926
sI1288
I3926
sI1289
I4056
sI1290
I3926
sI1292
I3913
sI1293
I3913
sI1295
I4056
sI1296
I4056
sI1298
I3913
sI1299
I3914
sI1300
I4033
sI1301
I4004
sI1302
I3914
sI1303
I4023
sI1304
I3965
sI1305
I4055
sI1307
I4057
sI1308
I3914
sI1311
I3914
sI1312
I4056
sI1313
I3965
sI1314
I4023
sI1316
I4050
sI1317
I3914
sI1318
I3969
sI1319
I4050
sI1320
I3969
sI1321
I3914
sI1324
I4055
sI1326
I3962
sI1327
I3905
sI1328
I4061
sI1329
I3905
sI1330
I3919
sI1331
I3919
sI1332
I4030
sI1333
I4030
sI1334
I3919
sI1336
I3919
sI1337
I3919
sI1339
I3964
sI1340
I3905
sI1341
I3986
sI1343
I4061
sI1344
I3905
sI1345
I3905
sI1346
I3905
sI1347
I4061
sI1348
I4061
sI1349
I3905
sI1350
I3905
sI1351
I4064
sI1352
I3976
sI1353
I3905
sI1354
I3905
sI1355
I4061
sI1356
I4063
sI1358
I3934
sI1359
I3934
sI1360
I3934
sI1361
I3905
sI1362
I4061
sI1363
I4063
sI1364
I3986
sI1365
I3905
sI1366
I3986
sI1367
I3905
sI1368
I4063
sI1369
I3905
sI1370
I3905
sI1371
I3905
sI1373
I3986
sI1374
I3905
sI1375
I4061
sI1376
I4061
sI1377
I3905
sI1378
I4063
sI1379
I3905
sI1380
I4063
sI1381
I4061
sI1382
I3905
sI1383
I4061
sI1384
I4051
sI1385
I4031
sI1386
I4031
sI1387
I3976
sI1388
I3976
sI1389
I3916
sI1391
I3916
sI1392
I4042
sI1393
I3916
sI1394
I3916
sI1396
I3916
sI1397
I3916
sI1398
I4067
sI1399
I4067
sI1401
I3916
sI1402
I3916
sI1403
I3916
sI1404
I4067
sI1405
I3916
sI1406
I3916
sI1407
I3916
sI1408
I3916
sI1409
I4067
sI1410
I4067
sI1411
I4021
sI1412
I3916
sI1414
I4067
sI1415
I3916
sI1416
I4067
sI1417
I3916
sI1418
I4067
sI1419
I3916
sI1420
I4067
sI1421
I3916
sI1422
I3916
sI1423
I3916
sI1424
I4067
sI1425
I3916
sI1426
I3978
sI1427
I4021
sI1430
I4021
sI1431
I3916
sI1432
I3916
sI1433
I3916
sI1434
I3916
sI1435
I4067
sI1437
I3916
sI1438
I3916
sI1439
I3916
sI1440
I3916
sI1441
I3916
sI1442
I3916
sI1443
I3916
sI1444
I3916
sI1445
I3916
sI1446
I4067
sI1447
I4067
sI1448
I3916
sI1449
I4067
sI1450
I3916
sI1451
I3916
sI1452
I4067
sI1453
I3916
sI1454
I3916
sI1455
I3916
sI1456
I3916
sI1457
I3916
sI1458
I3916
sI1459
I3916
sI1460
I4021
sI1461
I4021
sI1462
I4067
sI1465
I4021
sI1466
I4058
sI1467
I4021
sI1468
I4021
sI1469
I4021
sI1471
I3916
sI1472
I3916
sI1473
I3916
sI1475
I4021
sI1476
I4001
sI1477
I3993
sI1478
I3993
sI1479
I4001
sI1480
I4060
sI1481
I4001
sI1482
I4060
sI1483
I4001
sI1484
I4060
sI1485
I4001
sI1486
I3939
sI1487
I4001
sI1488
I4001
sI1489
I4001
sI1490
I4001
sI1491
I4001
sI1492
I4001
sI1493
I4060
sI1494
I4001
sI1495
I4001
sI1496
I3961
sI1497
I4060
sI1498
I4060
sI1499
I4060
sI1500
I4060
sI1501
I4060
sI1502
I4001
sI1503
I4060
sI1510
I4031
sI1511
I4031
sI1512
I4031
sI1513
I4031
sI1546
I4055
sI1579
I6859
sI1701
I6670
sI1702
I6951
sI1703
I6945
sI1704
I6888
sI1705
I6951
sI1706
I6888
sI1708
I6888
sI1709
I6739
sI1711
I6888
sI1713
I6915
sI1714
I6951
sI1715
I6848
sI1716
I6739
sI1717
I6951
sI1720
I6739
sI1721
I6852
sI1723
I6951
sI1724
I6951
sI1726
I6945
sI1732
I6852
sI1734
I6888
sI1736
I6880
sI1737
I6888
sI1738
I6677
sI1741
I6951
sI1742
I6852
sI1744
I6842
sI1749
I6842
sI1750
I6901
sI1754
I6880
sI1755
I6915
sI1757
I6842
sI1758
I6951
sI1761
I6951
sI1766
I6880
sI1767
I6768
sI1768
I6915
sI1770
I6739
sI1771
I6945
sI1772
I6888
sI1773
I6888
sI1775
I6951
sI1776
I6945
sI1777
I6677
sI1779
I6951
sI1780
I6737
sI1781
I6739
sI1782
I6664
sI1783
I6915
sI1784
I6888
sI1785
I6852
sI1787
I6852
sI1788
I6919
sI1792
I6945
sI1793
I6951
sI1794
I6951
sI1796
I6951
sI1797
I6869
sI1799
I6852
sI1800
I6739
sI1801
I6951
sI1802
I6951
sI1803
I6951
sI1805
I6945
sI1807
I6664
sI1808
I6737
sI1809
I6951
sI1813
I6951
sI1815
I6852
sI1816
I6951
sI1820
I6951
sI1821
I6842
sI1824
I6739
sI1826
I6951
sI1827
I6737
sI1828
I6888
sI1829
I6852
sI1830
I6951
sI1832
I6945
sI1834
I6951
sI1835
I6951
sI1836
I6842
sI1838
I6721
sI1839
I6951
sI1841
I6880
sI1842
I6852
sI1844
I6739
sI1846
I6951
sI1848
I6728
sI1849
I6677
sI1851
I6951
sI1856
I6740
sI1862
I6829
sI1863
I6746
sI1865
I6746
sI1868
I6951
sI1869
I6888
sI1870
I6898
sI1871
I6768
sI1872
I6898
sI1873
I6888
sI1876
I6772
sI1879
I6829
sI1880
I6886
sI1881
I6886
sI1883
I6886
sI1885
I6829
sI1887
I6886
sI1889
I6772
sI1897
I6754
sI1900
I6829
sI1905
I6829
sI1906
I6732
sI1911
I6746
sI1914
I6886
sI1916
I6886
sI1920
I6829
sI1921
I6746
sI1924
I6746
sI1933
I6746
sI1935
I6754
sI1936
I6754
sI1937
I6829
sI1938
I6746
sI1943
I6750
sI1947
I6933
sI1948
I6933
sI1950
I6933
sI1951
I6933
sI1952
I6933
sI1953
I6933
sI1954
I6933
sI1955
I6933
sI1957
I6933
sI1958
I6933
sI1960
I6933
sI1962
I6730
sI1963
I6730
sI1964
I6730
sI1965
I6730
sI1966
I6730
sI1967
I6730
sI1968
I6730
sI1969
I6730
sI1970
I6730
sI1971
I6730
sI2216
I441
sI2217
I441
sI2218
I417
sI2219
I417
sI2220
I333
sI2221
I441
sI2222
I441
sI2224
I441
sI2225
I441
sI2226
I417
sI2227
I417
sI2228
I417
sI2229
I441
sI2230
I417
sI2231
I417
sI2232
I441
sI2233
I441
sI2234
I417
sI2235
I417
sI2236
I417
sI2237
I441
sI2238
I417
sI2239
I417
sI2240
I265
sI2241
I417
sI2242
I417
sI2243
I417
sI2244
I417
sI2245
I417
sI2246
I417
sI2247
I441
sI2248
I417
sI2249
I417
sI2250
I417
sI2251
I441
sI2252
I417
sI2253
I417
sI2255
I441
sI2256
I417
sI2257
I417
sI2258
I417
sI2259
I417
sI2260
I417
sI2261
I441
sI2262
I417
sI2263
I417
sI2264
I417
sI2265
I417
sI2266
I441
sI2267
I417
sI2268
I417
sI2269
I333
sI2270
I417
sI2271
I417
sI2272
I441
sI2273
I417
sI2274
I417
sI2275
I417
sI2276
I417
sI2277
I417
sI2278
I417
sI2279
I417
sI2280
I417
sI2281
I417
sI2282
I417
sI2283
I417
sI2284
I417
sI2285
I417
sI2286
I417
sI2287
I417
sI2288
I417
sI2289
I417
sI2290
I441
sI2291
I417
sI2292
I417
sI2293
I417
sI2294
I417
sI2295
I417
sI2296
I417
sI2297
I417
sI2298
I417
sI2299
I441
sI2300
I441
sI2301
I441
sI2302
I441
sI2303
I441
sI2304
I417
sI2305
I441
sI2306
I441
sI2307
I417
sI2308
I417
sI2309
I441
sI2310
I441
sI2311
I441
sI2312
I441
sI2313
I441
sI2314
I441
sI2315
I417
sI2316
I417
sI2317
I417
sI2318
I417
sI2319
I417
sI2320
I417
sI2321
I417
sI2322
I417
sI2323
I417
sI2324
I417
sI2325
I417
sI2326
I417
sI2327
I417
sI2328
I417
sI2329
I417
sI2330
I227
sI2331
I441
sI2332
I441
sI2333
I441
sI2334
I441
sI2335
I417
sI2336
I417
sI2337
I280
sI2338
I441
sI2339
I441
sI2340
I441
sI2341
I417
sI2342
I417
sI2343
I417
sI2344
I417
sI2345
I417
sI2346
I441
sI2347
I417
sI2348
I441
sI2349
I333
sI2350
I417
sI2351
I417
sI2352
I441
sI2353
I441
sI2354
I441
sI2355
I441
sI2356
I417
sI2357
I417
sI2358
I441
sI2359
I417
sI2360
I417
sI2361
I417
sI2362
I441
sI2363
I417
sI2364
I407
sI2365
I417
sI2366
I441
sI2367
I441
sI2368
I417
sI2369
I417
sI2370
I417
sI2371
I441
sI2372
I417
sI2373
I417
sI2374
I417
sI2375
I333
sI2376
I441
sI2377
I441
sI2378
I441
sI2379
I417
sI2380
I417
sI2381
I417
sI2382
I265
sI2383
I441
sI2384
I417
sI2385
I441
sI2386
I441
sI2387
I441
sI2388
I441
sI2389
I441
sI2390
I417
sI2391
I441
sI2392
I441
sI2393
I417
sI2394
I441
sI2395
I441
sI2396
I417
sI2397
I441
sI2398
I417
sI2399
I417
sI2400
I417
sI2401
I420
sI2402
I417
sI2403
I417
sI2404
I441
sI2405
I265
sI2406
I265
sI2407
I265
sI2408
I417
sI2409
I265
sI2410
I265
sI2411
I265
sI2412
I417
sI2413
I265
sI2414
I441
sI2415
I265
sI2416
I265
sI2417
I441
sI2418
I265
sI2419
I265
sI2420
I441
sI2421
I265
sI2422
I265
sI2423
I265
sI2424
I441
sI2425
I265
sI2426
I265
sI2427
I417
sI2428
I265
sI2429
I417
sI2430
I265
sI2431
I283
sI2432
I265
sI2433
I265
sI2434
I265
sI2435
I265
sI2436
I417
sI2437
I417
sI2438
I417
sI2439
I417
sI2440
I420
sI2441
I265
sI2442
I265
sI2443
I265
sI2444
I441
sI2445
I265
sI2446
I265
sI2447
I417
sI2448
I265
sI2449
I265
sI2450
I265
sI2451
I265
sI2452
I265
sI2453
I265
sI2454
I265
sI2455
I265
sI2456
I265
sI2457
I265
sI2458
I265
sI2459
I441
sI2460
I265
sI2461
I265
sI2462
I417
sI2463
I265
sI2464
I265
sI2465
I265
sI2466
I265
sI2467
I265
sI2468
I265
sI2469
I417
sI2470
I441
sI2471
I265
sI2472
I265
sI2473
I265
sI2474
I417
sI2475
I265
sI2476
I265
sI2477
I265
sI2478
I441
sI2479
I265
sI2480
I265
sI2481
I417
sI2482
I265
sI2483
I417
sI2484
I265
sI2485
I265
sI2486
I265
sI2487
I265
sI2488
I265
sI2489
I265
sI2490
I265
sI2491
I265
sI2492
I417
sI2493
I265
sI2494
I265
sI2495
I265
sI2496
I441
sI2497
I333
sI2498
I333
sI2499
I227
sI2500
I441
sI2501
I441
sI2502
I441
sI2503
I333
sI2504
I333
sI2505
I441
sI2506
I441
sI2507
I441
sI2508
I441
sI2509
I417
sI2510
I441
sI2511
I333
sI2512
I441
sI2513
I441
sI2514
I333
sI2515
I333
sI2516
I441
sI2517
I333
sI2518
I441
sI2519
I333
sI2520
I333
sI2521
I441
sI2522
I333
sI2523
I333
sI2524
I333
sI2525
I441
sI2526
I441
sI2527
I333
sI2528
I333
sI2529
I441
sI2530
I333
sI2531
I441
sI2532
I333
sI2533
I441
sI2534
I333
sI2535
I441
sI2536
I441
sI2537
I441
sI2538
I333
sI2539
I441
sI2540
I333
sI2541
I333
sI2542
I441
sI2543
I333
sI2544
I333
sI2545
I333
sI2546
I441
sI2547
I441
sI2548
I441
sI2549
I441
sI2550
I441
sI2551
I333
sI2552
I333
sI2553
I333
sI2554
I333
sI2555
I333
sI2556
I333
sI2557
I265
sI2558
I333
sI2559
I441
sI2560
I333
sI2561
I333
sI2562
I333
sI2563
I434
sI2564
I441
sI2565
I265
sI2566
I333
sI2567
I333
sI2568
I441
sI2569
I441
sI2570
I333
sI2571
I333
sI2572
I441
sI2573
I333
sI2574
I333
sI2575
I333
sI2576
I333
sI2577
I333
sI2578
I333
sI2579
I441
sI2580
I441
sI2581
I441
sI2582
I333
sI2583
I441
sI2584
I441
sI2585
I265
sI2586
I441
sI2587
I333
sI2588
I441
sI2589
I265
sI2590
I265
sI2591
I441
sI2592
I420
sI2593
I333
sI2594
I441
sI2595
I333
sI2596
I265
sI2597
I265
sI2598
I265
sI2599
I265
sI2600
I441
sI2601
I265
sI2602
I265
sI2603
I265
sI2604
I265
sI2605
I441
sI2606
I265
sI2607
I265
sI2608
I441
sI2609
I265
sI2610
I333
sI2611
I265
sI2612
I333
sI2613
I265
sI2614
I441
sI2615
I333
sI2616
I441
sI2617
I265
sI2618
I265
sI2619
I333
sI2620
I333
sI2621
I265
sI2622
I265
sI2623
I441
sI2624
I265
sI2625
I265
sI2626
I265
sI2627
I265
sI2628
I265
sI2629
I333
sI2630
I333
sI2631
I265
sI2632
I441
sI2633
I333
sI2634
I441
sI2635
I441
sI2636
I265
sI2637
I265
sI2638
I333
sI2639
I265
sI2640
I441
sI2641
I333
sI2642
I441
sI2643
I333
sI2644
I265
sI2645
I265
sI2646
I265
sI2647
I265
sI2648
I441
sI2649
I265
sI2650
I265
sI2651
I441
sI2652
I265
sI2653
I265
sI2654
I441
sI2655
I333
sI2656
I333
sI2657
I265
sI2658
I333
sI2659
I308
sI2660
I265
sI2661
I265
sI2662
I265
sI2663
I265
sI2664
I441
sI2665
I441
sI2666
I265
sI2667
I265
sI2668
I265
sI2669
I265
sI2670
I308
sI2671
I265
sI2672
I441
sI2673
I333
sI2674
I265
sI2675
I265
sI2676
I265
sI2677
I333
sI2678
I441
sI2679
I441
sI2680
I333
sI2681
I265
sI2682
I265
sI2683
I333
sI2684
I265
sI2685
I441
sI2686
I441
sI2687
I265
sI2688
I441
sI2689
I441
sI2690
I265
sI2691
I333
sI2692
I265
sI2693
I441
sI2694
I265
sI2695
I265
sI2696
I441
sI2697
I265
sI2698
I265
sI2699
I265
sI2700
I265
sI2701
I265
sI2702
I265
sI2703
I265
sI2704
I265
sI2705
I333
sI2706
I420
sI2707
I265
sI2708
I265
sI2709
I265
sI2710
I265
sI2711
I265
sI2712
I265
sI2713
I265
sI2714
I265
sI2715
I265
sI2716
I265
sI2717
I265
sI2718
I265
sI2719
I265
sI2720
I265
sI2721
I265
sI2722
I265
sI2723
I265
sI2724
I265
sI2725
I265
sI2726
I265
sI2727
I265
sI2728
I265
sI2729
I265
sI2730
I265
sI2731
I265
sI2732
I265
sI2733
I265
sI2734
I265
sI2735
I265
sI2736
I265
sI2737
I265
sI2738
I265
sI2739
I441
sI2740
I265
sI2741
I265
sI2742
I265
sI2743
I265
sI2744
I265
sI2745
I333
sI2746
I265
sI2747
I265
sI2748
I265
sI2749
I265
sI2750
I265
sI2751
I265
sI2752
I265
sI2753
I265
sI2754
I265
sI2755
I265
sI2756
I441
sI2757
I265
sI2758
I265
sI2759
I265
sI2760
I265
sI2761
I265
sI2762
I265
sI2763
I265
sI2764
I265
sI2765
I265
sI2766
I265
sI2767
I265
sI2768
I265
sI2769
I265
sI2770
I265
sI2771
I265
sI2772
I265
sI2773
I441
sI2774
I265
sI2775
I265
sI2776
I441
sI2777
I265
sI2778
I265
sI2779
I265
sI2780
I265
sI2781
I265
sI2782
I265
sI2783
I434
sI2784
I265
sI2785
I265
sI2786
I265
sI2787
I265
sI2788
I441
sI2789
I265
sI2790
I417
sI2791
I441
sI2792
I265
sI2793
I265
sI2794
I265
sI2795
I265
sI2796
I265
sI2797
I265
sI2798
I265
sI2799
I265
sI2800
I265
sI2801
I441
sI2802
I265
sI2803
I265
sI2804
I265
sI2805
I265
sI2806
I265
sI2808
I265
sI2809
I265
sI2810
I265
sI2811
I265
sI2812
I265
sI2813
I441
sI2814
I265
sI2815
I265
sI2816
I265
sI2817
I265
sI2818
I265
sI2819
I265
sI2820
I265
sI2821
I265
sI2822
I265
sI2823
I265
sI2824
I265
sI2825
I265
sI2826
I265
sI2827
I265
sI2828
I265
sI2829
I265
sI2830
I265
sI2831
I265
sI2832
I265
sI2833
I265
sI2834
I265
sI2835
I265
sI2836
I265
sI2837
I265
sI2838
I265
sI2839
I265
sI2840
I265
sI2841
I265
sI2842
I265
sI2843
I265
sI2844
I265
sI2845
I265
sI2846
I265
sI2847
I265
sI2848
I265
sI2849
I265
sI2850
I265
sI2851
I265
sI2852
I265
sI2853
I265
sI2854
I265
sI2855
I441
sI2856
I265
sI2857
I265
sI2858
I265
sI2859
I265
sI2860
I265
sI2861
I265
sI2862
I265
sI2863
I265
sI2864
I265
sI2865
I265
sI2866
I265
sI2867
I265
sI2868
I265
sI2869
I265
sI2870
I265
sI2871
I265
sI2872
I265
sI2873
I265
sI2874
I265
sI2875
I265
sI2876
I265
sI2877
I265
sI2878
I280
sI2879
I265
sI2880
I265
sI2881
I265
sI2882
I265
sI2883
I265
sI2884
I265
sI2885
I265
sI2886
I265
sI2887
I265
sI2888
I265
sI2889
I265
sI2890
I265
sI2891
I265
sI2892
I265
sI2893
I265
sI2894
I265
sI2895
I265
sI2896
I265
sI2897
I265
sI2898
I265
sI2899
I265
sI2900
I265
sI2901
I265
sI2902
I265
sI2903
I265
sI2904
I265
sI2905
I265
sI2906
I265
sI2907
I265
sI2908
I265
sI2909
I265
sI2910
I265
sI2911
I265
sI2912
I265
sI2913
I265
sI2914
I265
sI2915
I265
sI2916
I265
sI2917
I265
sI2918
I265
sI2919
I265
sI2920
I265
sI2921
I265
sI2922
I265
sI2923
I265
sI2924
I406
sI2925
I265
sI2926
I265
sI2927
I265
sI2928
I265
sI2929
I265
sI2930
I265
sI2931
I265
sI2932
I265
sI2933
I265
sI2934
I265
sI2935
I265
sI2936
I265
sI2937
I265
sI2938
I265
sI2939
I265
sI2940
I265
sI2941
I265
sI2942
I265
sI2943
I265
sI2944
I265
sI2945
I265
sI2946
I265
sI2947
I265
sI2948
I265
sI2949
I265
sI2950
I265
sI2951
I265
sI2952
I265
sI2953
I265
sI2954
I265
sI2955
I227
sI2956
I265
sI2957
I265
sI2958
I265
sI2959
I265
sI2960
I265
sI2961
I265
sI2962
I265
sI2963
I265
sI2964
I265
sI2965
I265
sI2966
I265
sI2967
I265
sI2968
I265
sI2969
I265
sI2970
I265
sI2971
I265
sI2972
I265
sI2973
I265
sI2974
I265
sI2976
I265
sI2977
I265
sI2978
I265
sI2979
I265
sI2980
I265
sI2981
I265
sI2982
I265
sI2983
I265
sI2984
I265
sI2985
I265
sI2986
I265
sI2987
I280
sI2988
I265
sI2989
I265
sI2990
I265
sI2991
I265
sI2992
I265
sI2993
I265
sI2994
I265
sI2995
I265
sI2996
I265
sI2997
I265
sI2998
I280
sI2999
I265
sI3000
I265
sI3001
I265
sI3002
I265
sI3003
I265
sI3004
I265
sI3005
I265
sI3006
I265
sI3007
I265
sI3008
I265
sI3009
I265
sI3010
I265
sI3011
I265
sI3012
I265
sI3013
I265
sI3014
I265
sI3015
I265
sI3016
I265
sI3017
I265
sI3018
I265
sI3019
I265
sI3020
I265
sI3021
I265
sI3022
I265
sI3023
I265
sI3024
I265
sI3025
I420
sI3026
I265
sI3027
I265
sI3028
I265
sI3029
I265
sI3030
I265
sI3031
I265
sI3032
I265
sI3033
I283
sI3034
I265
sI3035
I265
sI3036
I265
sI3037
I265
sI3038
I265
sI3039
I265
sI3040
I265
sI3041
I265
sI3042
I265
sI3043
I265
sI3044
I265
sI3045
I265
sI3046
I265
sI3047
I265
sI3048
I265
sI3049
I265
sI3050
I265
sI3051
I265
sI3052
I265
sI3053
I265
sI3054
I441
sI3055
I265
sI3056
I265
sI3057
I265
sI3058
I265
sI3059
I265
sI3060
I265
sI3061
I265
sI3062
I265
sI3063
I265
sI3064
I265
sI3065
I265
sI3066
I265
sI3067
I340
sI3068
I265
sI3069
I265
sI3070
I265
sI3071
I265
sI3072
I265
sI3073
I340
sI3074
I265
sI3075
I265
sI3076
I265
sI3077
I265
sI3078
I265
sI3079
I265
sI3080
I265
sI3081
I280
sI3082
I265
sI3083
I265
sI3084
I265
sI3085
I265
sI3086
I265
sI3087
I265
sI3088
I265
sI3089
I265
sI3090
I265
sI3091
I265
sI3092
I265
sI3093
I265
sI3094
I265
sI3095
I265
sI3096
I265
sI3097
I265
sI3098
I265
sI3099
I265
sI3100
I265
sI3101
I280
sI3102
I417
sI3103
I265
sI3104
I265
sI3105
I265
sI3106
I265
sI3107
I265
sI3108
I265
sI3109
I265
sI3110
I265
sI3111
I265
sI3112
I265
sI3113
I265
sI3114
I265
sI3115
I420
sI3116
I265
sI3117
I265
sI3118
I265
sI3119
I265
sI3120
I265
sI3121
I265
sI3122
I265
sI3123
I265
sI3124
I265
sI3125
I265
sI3126
I265
sI3127
I265
sI3128
I265
sI3129
I265
sI3131
I265
sI3132
I265
sI3133
I265
sI3134
I265
sI3135
I265
sI3136
I265
sI3137
I265
sI3138
I265
sI3139
I265
sI3140
I265
sI3141
I265
sI3142
I265
sI3143
I265
sI3144
I265
sI3145
I265
sI3146
I265
sI3147
I265
sI3148
I265
sI3149
I265
sI3150
I265
sI3151
I265
sI3152
I265
sI3153
I265
sI3154
I265
sI3155
I265
sI3156
I265
sI3157
I265
sI3158
I265
sI3159
I265
sI3160
I265
sI3161
I265
sI3162
I265
sI3163
I265
sI3164
I265
sI3165
I265
sI3166
I265
sI3167
I265
sI3168
I283
sI3169
I265
sI3170
I265
sI3171
I265
sI3172
I265
sI3173
I265
sI3174
I265
sI3175
I265
sI3176
I441
sI3177
I265
sI3178
I265
sI3179
I265
sI3180
I265
sI3181
I265
sI3182
I265
sI3183
I265
sI3184
I265
sI3185
I265
sI3186
I265
sI3187
I265
sI3188
I265
sI3189
I265
sI3190
I265
sI3191
I265
sI3192
I265
sI3193
I265
sI3194
I265
sI3195
I265
sI3196
I265
sI3197
I265
sI3198
I265
sI3199
I265
sI3200
I265
sI3201
I265
sI3202
I265
sI3203
I265
sI3204
I265
sI3205
I265
sI3206
I265
sI3207
I265
sI3208
I265
sI3209
I265
sI3210
I283
sI3211
I308
sI3212
I265
sI3213
I280
sI3214
I265
sI3215
I308
sI3216
I434
sI3217
I265
sI3218
I265
sI3219
I265
sI3220
I265
sI3221
I308
sI3222
I265
sI3223
I265
sI3224
I308
sI3225
I308
sI3226
I265
sI3227
I265
sI3228
I265
sI3229
I265
sI3230
I265
sI3231
I308
sI3232
I265
sI3233
I265
sI3234
I308
sI3235
I265
sI3236
I265
sI3237
I308
sI3238
I265
sI3239
I308
sI3240
I308
sI3241
I265
sI3242
I265
sI3243
I265
sI3244
I265
sI3245
I308
sI3246
I308
sI3247
I265
sI3248
I308
sI3249
I420
sI3250
I308
sI3251
I308
sI3252
I308
sI3253
I308
sI3254
I265
sI3255
I265
sI3256
I265
sI3257
I308
sI3258
I265
sI3259
I265
sI3260
I308
sI3261
I308
sI3262
I265
sI3264
I265
sI3265
I265
sI3266
I308
sI3267
I308
sI3268
I308
sI3269
I308
sI3270
I308
sI3271
I308
sI3272
I265
sI3273
I308
sI3274
I308
sI3275
I308
sI3276
I308
sI3277
I308
sI3278
I308
sI3279
I308
sI3280
I265
sI3281
I308
sI3282
I265
sI3283
I308
sI3284
I265
sI3285
I333
sI3286
I308
sI3287
I308
sI3288
I308
sI3289
I308
sI3290
I308
sI3291
I308
sI3292
I265
sI3293
I308
sI3294
I308
sI3295
I308
sI3296
I308
sI3297
I308
sI3298
I434
sI3299
I308
sI3300
I308
sI3301
I308
sI3302
I420
sI3303
I308
sI3304
I308
sI3305
I265
sI3306
I308
sI3307
I265
sI3308
I308
sI3309
I308
sI3310
I265
sI3311
I308
sI3312
I308
sI3313
I308
sI3314
I308
sI3315
I308
sI3316
I265
sI3317
I308
sI3318
I265
sI3319
I265
sI3320
I308
sI3321
I420
sI3322
I265
sI3323
I265
sI3324
I333
sI3325
I265
sI3326
I265
sI3327
I308
sI3328
I308
sI3329
I308
sI3330
I308
sI3331
I308
sI3332
I308
sI3333
I265
sI3334
I308
sI3335
I308
sI3336
I265
sI3337
I265
sI3338
I308
sI3339
I308
sI3340
I308
sI3341
I308
sI3342
I308
sI3343
I265
sI3344
I265
sI3345
I434
sI3346
I308
sI3347
I434
sI3348
I434
sI3349
I420
sI3350
I308
sI3351
I434
sI3352
I227
sI3353
I434
sI3354
I434
sI3356
I434
sI3357
I434
sI3359
I434
sI3360
I420
sI3361
I420
sI3362
I420
sI3363
I420
sI3364
I420
sI3365
I420
sI3366
I420
sI3367
I420
sI3368
I420
sI3369
I420
sI3370
I434
sI3371
I434
sI3372
I420
sI3373
I434
sI3374
I434
sI3375
I434
sI3376
I308
sI3377
I434
sI3378
I308
sI3379
I434
sI3380
I434
sI3381
I308
sI3382
I434
sI3383
I434
sI3384
I434
sI3385
I434
sI3386
I434
sI3387
I434
sI3388
I434
sI3389
I434
sI3390
I420
sI3391
I420
sI3392
I420
sI3393
I308
sI3394
I420
sI3395
I420
sI3396
I420
sI3397
I420
sI3398
I420
sI3399
I420
sI3400
I434
sI3401
I434
sI3402
I308
sI3403
I434
sI3404
I308
sI3405
I434
sI3406
I434
sI3407
I434
sI3408
I434
sI3409
I308
sI3410
I434
sI3411
I308
sI3412
I434
sI3413
I308
sI3414
I434
sI3415
I308
sI3416
I308
sI3417
I434
sI3418
I434
sI3419
I434
sI3420
I308
sI3421
I308
sI3422
I434
sI3423
I434
sI3424
I308
sI3425
I308
sI3426
I308
sI3427
I434
sI3428
I227
sI3429
I434
sI3430
I434
sI3431
I434
sI3432
I308
sI3433
I308
sI3434
I420
sI3435
I420
sI3436
I420
sI3437
I420
sI3438
I420
sI3439
I420
sI3440
I420
sI3441
I434
sI3442
I434
sI3443
I420
sI3444
I308
sI3445
I420
sI3446
I420
sI3447
I420
sI3448
I308
sI3449
I434
sI3451
I308
sI3452
I434
sI3453
I420
sI3454
I420
sI3455
I420
sI3456
I434
sI3457
I420
sI3458
I420
sI3459
I420
sI3460
I420
sI3461
I434
sI3462
I434
sI3463
I434
sI3464
I420
sI3465
I420
sI3466
I434
sI3467
I434
sI3468
I420
sI3469
I420
sI3470
I420
sI3471
I420
sI3472
I420
sI3473
I420
sI3474
I434
sI3475
I420
sI3476
I434
sI3477
I308
sI3478
I308
sI3479
I308
sI3480
I434
sI3481
I434
sI3482
I308
sI3483
I434
sI3484
I434
sI3485
I308
sI3486
I420
sI3487
I406
sI3488
I406
sI3489
I434
sI3490
I434
sI3491
I420
sI3492
I420
sI3493
I434
sI3494
I434
sI3495
I420
sI3496
I420
sI3497
I420
sI3498
I420
sI3499
I420
sI3500
I420
sI3501
I420
sI3502
I420
sI3503
I434
sI3504
I420
sI3505
I420
sI3507
I434
sI3508
I420
sI3509
I434
sI3510
I420
sI3511
I420
sI3512
I420
sI3513
I420
sI3514
I434
sI3515
I420
sI3516
I434
sI3517
I420
sI3518
I434
sI3519
I434
sI3520
I434
sI3521
I434
sI3522
I434
sI3523
I434
sI3524
I434
sI3525
I434
sI3526
I434
sI3527
I434
sI3528
I420
sI3530
I420
sI3531
I420
sI3532
I420
sI3533
I420
sI3534
I420
sI3535
I420
sI3536
I420
sI3537
I420
sI3538
I420
sI3539
I420
sI3540
I420
sI3541
I420
sI3542
I406
sI3543
I420
sI3544
I420
sI3545
I420
sI3546
I420
sI3547
I420
sI3548
I265
sI3549
I420
sI3550
I420
sI3551
I420
sI3552
I420
sI3553
I406
sI3554
I420
sI3555
I420
sI3556
I420
sI3557
I420
sI3558
I420
sI3559
I420
sI3560
I420
sI3561
I420
sI3562
I420
sI3563
I420
sI3564
I420
sI3565
I420
sI3566
I420
sI3567
I420
sI3568
I420
sI3569
I420
sI3570
I420
sI3571
I420
sI3572
I420
sI3573
I420
sI3574
I420
sI3575
I420
sI3576
I420
sI3577
I420
sI3578
I420
sI3579
I420
sI3580
I420
sI3581
I420
sI3582
I420
sI3583
I420
sI3584
I420
sI3585
I420
sI3586
I420
sI3587
I420
sI3588
I420
sI3589
I420
sI3590
I420
sI3591
I420
sI3592
I420
sI3593
I420
sI3594
I420
sI3595
I420
sI3596
I420
sI3597
I420
sI3598
I420
sI3599
I420
sI3600
I420
sI3601
I420
sI3602
I420
sI3603
I420
sI3604
I420
sI3605
I420
sI3606
I420
sI3607
I420
sI3608
I420
sI3609
I420
sI3610
I420
sI3611
I420
sI3612
I420
sI3613
I420
sI3614
I420
sI3615
I420
sI3616
I420
sI3617
I420
sI3618
I420
sI3619
I420
sI3620
I420
sI3621
I420
sI3622
I420
sI3623
I420
sI3624
I420
sI3625
I420
sI3626
I420
sI3627
I420
sI3628
I420
sI3629
I420
sI3630
I420
sI3631
I420
sI3632
I420
sI3633
I420
sI3634
I420
sI3635
I420
sI3636
I420
sI3637
I420
sI3638
I420
sI3639
I420
sI3640
I420
sI3641
I420
sI3642
I420
sI3643
I420
sI3644
I420
sI3645
I420
sI3646
I420
sI3647
I420
sI3648
I420
sI3649
I420
sI3650
I252
sI3651
I420
sI3652
I420
sI3653
I420
sI3654
I420
sI3655
I420
sI3656
I420
sI3657
I420
sI3658
I420
sI3659
I420
sI3660
I420
sI3661
I420
sI3662
I420
sI3663
I420
sI3664
I420
sI3665
I420
sI3666
I420
sI3667
I420
sI3668
I420
sI3669
I420
sI3670
I420
sI3671
I420
sI3672
I420
sI3673
I420
sI3674
I420
sI3675
I420
sI3676
I420
sI3677
I420
sI3678
I420
sI3679
I420
sI3680
I420
sI3681
I420
sI3682
I420
sI3683
I420
sI3684
I420
sI3685
I420
sI3686
I420
sI3687
I420
sI3688
I420
sI3689
I420
sI3690
I420
sI3691
I420
sI3692
I420
sI3693
I420
sI3694
I420
sI3695
I420
sI3696
I420
sI3697
I420
sI3698
I420
sI3699
I420
sI3700
I420
sI3701
I420
sI3702
I420
sI3703
I420
sI3704
I227
sI3705
I420
sI3706
I420
sI3707
I420
sI3708
I420
sI3709
I420
sI3710
I420
sI3711
I420
sI3712
I420
sI3713
I420
sI3714
I420
sI3715
I420
sI3716
I420
sI3717
I420
sI3718
I420
sI3719
I420
sI3720
I420
sI3721
I420
sI3722
I420
sI3723
I420
sI3724
I420
sI3725
I420
sI3726
I420
sI3727
I420
sI3728
I420
sI3729
I420
sI3730
I420
sI3731
I420
sI3732
I420
sI3733
I420
sI3734
I420
sI3735
I420
sI3736
I420
sI3737
I420
sI3738
I420
sI3739
I420
sI3740
I420
sI3741
I252
sI3742
I420
sI3743
I420
sI3744
I420
sI3745
I420
sI3746
I420
sI3747
I420
sI3748
I420
sI3749
I420
sI3750
I420
sI3751
I420
sI3752
I420
sI3753
I420
sI3754
I420
sI3755
I420
sI3756
I420
sI3757
I420
sI3758
I434
sI3759
I333
sI3760
I420
sI3761
I420
sI3762
I420
sI3764
I420
sI3765
I420
sI3766
I420
sI3767
I420
sI3768
I420
sI3769
I420
sI3770
I420
sI3771
I420
sI3772
I420
sI3773
I420
sI3774
I420
sI3775
I420
sI3776
I420
sI3777
I420
sI3778
I420
sI3779
I420
sI3780
I420
sI3781
I420
sI3782
I420
sI3783
I420
sI3784
I420
sI3785
I420
sI3786
I420
sI3787
I420
sI3788
I420
sI3789
I420
sI3790
I420
sI3791
I420
sI3792
I420
sI3793
I308
sI3794
I420
sI3795
I420
sI3796
I420
sI3797
I420
sI3798
I420
sI3799
I420
sI3800
I420
sI3801
I420
sI3802
I420
sI3803
I420
sI3804
I420
sI3805
I420
sI3806
I420
sI3807
I420
sI3808
I420
sI3809
I420
sI3810
I420
sI3811
I420
sI3812
I420
sI3813
I420
sI3814
I420
sI3815
I420
sI3816
I420
sI3817
I420
sI3818
I420
sI3819
I420
sI3820
I420
sI3821
I420
sI3822
I420
sI3823
I420
sI3824
I420
sI3825
I420
sI3826
I420
sI3827
I420
sI3828
I420
sI3829
I420
sI3830
I420
sI3831
I420
sI3832
I420
sI3833
I420
sI3834
I420
sI3835
I420
sI3836
I420
sI3837
I420
sI3838
I420
sI3839
I420
sI3840
I420
sI3841
I420
sI3842
I420
sI3843
I420
sI3844
I420
sI3845
I420
sI3846
I406
sI3847
I420
sI3848
I420
sI3849
I420
sI3850
I420
sI3851
I420
sI3852
I420
sI3853
I420
sI3854
I420
sI3855
I420
sI3856
I420
sI3857
I420
sI3858
I420
sI3859
I420
sI3860
I420
sI3861
I420
sI3862
I420
sI3863
I420
sI3864
I420
sI3865
I420
sI3866
I420
sI3867
I420
sI3868
I420
sI3869
I420
sI3870
I420
sI3871
I420
sI3872
I420
sI3873
I420
sI3874
I420
sI3875
I227
sI3876
I420
sI3877
I420
sI3878
I420
sI3879
I420
sI3880
I420
sI3881
I420
sI3882
I420
sI3883
I420
sI3884
I420
sI3885
I420
sI3886
I420
sI3887
I420
sI3888
I420
sI3889
I420
sI3890
I420
sI3891
I420
sI3892
I420
sI3893
I420
sI3894
I420
sI3895
I420
sI3896
I420
sI3897
I420
sI3898
I420
sI3899
I420
sI3900
I420
sI3901
I420
sI3902
I420
sI3903
I420
sI3904
I420
sI3905
I420
sI3906
I420
sI3907
I420
sI3908
I283
sI3909
I283
sI3910
I283
sI3911
I283
sI3913
I308
sI3914
I417
sI3915
I265
sI3916
I417
sI3917
I265
sI3918
I265
sI3919
I417
sI3920
I417
sI3921
I265
sI3922
I417
sI3923
I265
sI3925
I417
sI3926
I417
sI3927
I417
sI3928
I417
sI3929
I417
sI3930
I283
sI3931
I283
sI3932
I417
sI3933
I417
sI3934
I417
sI3935
I417
sI3936
I417
sI3937
I417
sI3938
I283
sI3939
I417
sI3940
I417
sI3941
I417
sI3942
I265
sI3943
I265
sI3944
I417
sI3945
I417
sI3946
I417
sI3947
I417
sI3948
I417
sI3949
I417
sI3950
I417
sI3952
I417
sI3953
I417
sI3954
I417
sI3955
I417
sI3956
I417
sI3957
I417
sI3958
I417
sI3959
I417
sI3960
I417
sI3961
I265
sI3962
I417
sI3963
I417
sI3964
I417
sI3965
I417
sI3966
I417
sI3967
I417
sI3968
I336
sI3969
I417
sI3970
I417
sI3971
I417
sI3972
I417
sI3973
I417
sI3974
I417
sI3975
I417
sI3976
I417
sI3977
I417
sI3978
I417
sI3980
I417
sI3981
I417
sI3982
I417
sI3983
I308
sI3984
I417
sI3985
I283
sI3986
I283
sI3987
I283
sI3988
I333
sI3989
I283
sI3990
I417
sI3991
I283
sI3992
I417
sI3993
I283
sI3994
I283
sI3995
I283
sI3996
I265
sI3997
I417
sI3998
I417
sI3999
I417
sI4000
I434
sI4001
I434
sI4002
I434
sI4003
I417
sI4004
I417
sI4005
I420
sI4006
I227
sI4007
I308
sI4008
I265
sI4009
I283
sI4011
I227
sI4012
I283
sI4013
I283
sI4014
I283
sI4015
I283
sI4016
I283
sI4017
I283
sI4018
I283
sI4019
I283
sI4020
I283
sI4021
I283
sI4022
I283
sI4023
I283
sI4024
I283
sI4025
I283
sI4026
I417
sI4027
I283
sI4028
I283
sI4029
I283
sI4030
I283
sI4031
I283
sI4032
I283
sI4033
I283
sI4034
I283
sI4035
I283
sI4036
I283
sI4037
I283
sI4038
I283
sI4039
I283
sI4040
I283
sI4041
I283
sI4042
I283
sI4043
I283
sI4044
I283
sI4045
I283
sI4046
I283
sI4047
I283
sI4048
I283
sI4049
I283
sI4050
I283
sI4051
I283
sI4052
I283
sI4053
I283
sI4054
I283
sI4055
I283
sI4056
I283
sI4057
I283
sI4058
I283
sI4059
I283
sI4060
I283
sI4061
I283
sI4062
I283
sI4063
I283
sI4064
I283
sI4065
I283
sI4066
I283
sI4067
I283
sI4068
I283
sI4069
I283
sI4070
I283
sI4071
I283
sI4072
I240
sI4073
I240
sI4074
I283
sI4077
I283
sI4078
I283
sI4079
I283
sI4080
I283
sI4081
I283
sI4082
I283
sI4083
I283
sI4084
I283
sI4085
I283
sI4086
I283
sI4087
I283
sI4088
I283
sI4089
I283
sI4090
I283
sI4091
I283
sI4092
I283
sI4093
I283
sI4094
I283
sI4095
I283
sI4096
I283
sI4097
I283
sI4098
I283
sI4099
I283
sI4100
I283
sI4101
I283
sI4102
I283
sI4103
I283
sI4104
I283
sI4105
I283
sI4106
I283
sI4107
I283
sI4108
I283
sI4109
I283
sI4110
I283
sI4111
I283
sI4112
I283
sI4113
I283
sI4114
I283
sI4115
I283
sI4116
I283
sI4117
I283
sI4118
I283
sI4119
I283
sI4120
I283
sI4121
I283
sI4122
I283
sI4123
I283
sI4124
I283
sI4126
I283
sI4127
I283
sI4128
I283
sI4129
I283
sI4130
I283
sI4131
I283
sI4132
I407
sI4133
I407
sI4134
I407
sI4135
I407
sI4136
I407
sI4137
I407
sI4138
I407
sI4139
I407
sI4140
I407
sI4141
I407
sI4142
I407
sI4143
I407
sI4144
I407
sI4145
I407
sI4146
I407
sI4147
I407
sI4148
I407
sI4149
I407
sI4150
I407
sI4151
I407
sI4152
I407
sI4153
I407
sI4154
I407
sI4155
I407
sI4156
I407
sI4157
I407
sI4158
I407
sI4159
I407
sI4160
I407
sI4161
I407
sI4162
I407
sI4163
I407
sI4164
I407
sI4165
I407
sI4166
I407
sI4167
I407
sI4168
I407
sI4169
I407
sI4170
I407
sI4171
I407
sI4172
I407
sI4173
I407
sI4174
I407
sI4175
I407
sI4176
I407
sI4177
I407
sI4178
I407
sI4179
I407
sI4180
I407
sI4181
I407
sI4182
I407
sI4183
I407
sI4184
I407
sI4185
I407
sI4186
I407
sI4187
I407
sI4188
I407
sI4189
I407
sI4190
I407
sI4191
I407
sI4192
I407
sI4193
I407
sI4194
I407
sI4195
I407
sI4196
I407
sI4197
I407
sI4198
I407
sI4199
I407
sI4200
I407
sI4201
I407
sI4202
I407
sI4203
I407
sI4204
I407
sI4205
I252
sI4206
I407
sI4207
I407
sI4208
I407
sI4209
I407
sI4210
I407
sI4211
I407
sI4212
I407
sI4213
I407
sI4214
I407
sI4215
I407
sI4216
I407
sI4217
I407
sI4218
I407
sI4219
I407
sI4220
I407
sI4221
I407
sI4222
I407
sI4223
I407
sI4224
I407
sI4225
I407
sI4226
I407
sI4227
I407
sI4228
I407
sI4229
I407
sI4230
I407
sI4231
I407
sI4232
I407
sI4233
I407
sI4234
I407
sI4235
I407
sI4236
I407
sI4237
I407
sI4238
I407
sI4239
I407
sI4240
I407
sI4241
I407
sI4242
I407
sI4243
I407
sI4244
I407
sI4245
I407
sI4246
I407
sI4247
I407
sI4248
I407
sI4249
I407
sI4250
I407
sI4251
I407
sI4252
I407
sI4253
I407
sI4254
I407
sI4255
I407
sI4256
I407
sI4258
I265
sI4259
I283
sI4260
I283
sI4261
I283
sI4262
I407
sI4263
I283
sI4264
I407
sI4266
I308
sI4267
I407
sI4268
I407
sI4269
I407
sI4270
I407
sI4271
I407
sI4272
I407
sI4273
I407
sI4274
I407
sI4275
I407
sI4276
I407
sI4277
I407
sI4278
I265
sI4279
I407
sI4280
I407
sI4281
I407
sI4282
I407
sI4283
I407
sI4284
I407
sI4285
I407
sI4286
I407
sI4287
I407
sI4288
I407
sI4289
I407
sI4290
I407
sI4291
I407
sI4292
I407
sI4293
I407
sI4294
I407
sI4295
I407
sI4296
I407
sI4297
I407
sI4298
I407
sI4299
I407
sI4300
I407
sI4301
I407
sI4302
I407
sI4303
I407
sI4304
I407
sI4305
I407
sI4306
I407
sI4307
I407
sI4309
I407
sI4310
I407
sI4311
I407
sI4312
I407
sI4313
I407
sI4314
I407
sI4315
I407
sI4316
I407
sI4317
I407
sI4318
I407
sI4319
I407
sI4320
I407
sI4321
I407
sI4322
I407
sI4323
I407
sI4324
I407
sI4325
I407
sI4326
I407
sI4327
I407
sI4328
I407
sI4329
I407
sI4330
I407
sI4331
I407
sI4332
I407
sI4333
I407
sI4334
I407
sI4335
I407
sI4336
I407
sI4337
I407
sI4338
I407
sI4339
I407
sI4340
I407
sI4341
I407
sI4342
I407
sI4344
I407
sI4345
I407
sI4346
I407
sI4347
I407
sI4348
I407
sI4349
I406
sI4350
I406
sI4351
I406
sI4352
I406
sI4353
I406
sI4354
I406
sI4355
I406
sI4356
I406
sI4357
I406
sI4358
I406
sI4359
I406
sI4360
I406
sI4361
I406
sI4362
I406
sI4363
I406
sI4364
I406
sI4365
I406
sI4366
I406
sI4367
I406
sI4368
I406
sI4369
I406
sI4370
I406
sI4371
I406
sI4372
I406
sI4373
I406
sI4374
I406
sI4375
I406
sI4376
I406
sI4377
I406
sI4378
I406
sI4379
I406
sI4380
I406
sI4381
I406
sI4382
I406
sI4383
I406
sI4384
I406
sI4385
I406
sI4386
I406
sI4387
I406
sI4388
I406
sI4389
I406
sI4390
I406
sI4391
I406
sI4392
I406
sI4393
I406
sI4394
I406
sI4395
I406
sI4396
I434
sI4397
I333
sI4398
I406
sI4399
I420
sI4400
I420
sI4401
I420
sI4402
I420
sI4403
I420
sI4404
I420
sI4405
I420
sI4406
I420
sI4407
I420
sI4408
I420
sI4409
I308
sI4410
I420
sI4411
I420
sI4412
I406
sI4413
I420
sI4414
I420
sI4415
I406
sI4416
I406
sI4417
I406
sI4418
I406
sI4419
I406
sI4420
I406
sI4421
I406
sI4422
I406
sI4423
I227
sI4424
I406
sI4425
I406
sI4426
I406
sI4427
I406
sI4428
I420
sI4429
I351
sI4431
I351
sI4432
I382
sI4434
I351
sI4437
I382
sI4439
I382
sI4440
I382
sI4441
I382
sI4447
I382
sI4449
I382
sI4456
I382
sI4458
I382
sI4459
I351
sI4460
I351
sI4461
I382
sI4462
I351
sI4463
I382
sI4464
I336
sI4465
I336
sI4466
I336
sI4467
I336
sI4468
I336
sI4470
I336
sI4471
I336
sI4472
I336
sI4473
I336
sI4474
I336
sI4475
I336
sI4476
I336
sI4477
I336
sI4478
I434
sI4479
I336
sI4480
I336
sI4481
I336
sI4482
I336
sI4483
I336
sI4484
I336
sI4485
I336
sI4486
I336
sI4487
I336
sI4488
I336
sI4489
I336
sI4490
I336
sI4491
I336
sI4492
I336
sI4493
I336
sI4495
I336
sI4497
I336
sI4498
I336
sI4499
I336
sI4500
I336
sI4501
I336
sI4502
I336
sI4503
I336
sI4504
I336
sI4505
I336
sI4506
I336
sI4507
I240
sI4508
I336
sI4509
I336
sI4510
I336
sI4511
I336
sI4512
I336
sI4513
I336
sI4514
I336
sI4515
I336
sI4516
I336
sI4517
I336
sI4518
I297
sI4519
I336
sI4521
I336
sI4522
I336
sI4523
I336
sI4524
I336
sI4525
I336
sI4526
I336
sI4527
I336
sI4528
I297
sI4529
I336
sI4530
I336
sI4531
I336
sI4532
I336
sI4533
I336
sI4534
I336
sI4535
I336
sI4536
I336
sI4537
I336
sI4538
I336
sI4539
I336
sI4540
I252
sI4541
I336
sI4542
I336
sI4543
I336
sI4544
I336
sI4545
I336
sI4546
I336
sI4547
I336
sI4548
I336
sI4549
I240
sI4550
I336
sI4551
I336
sI4552
I336
sI4553
I336
sI4554
I336
sI4555
I336
sI4556
I336
sI4557
I336
sI4558
I336
sI4559
I336
sI4560
I336
sI4561
I336
sI4562
I336
sI4563
I336
sI4564
I336
sI4565
I336
sI4566
I336
sI4567
I336
sI4568
I336
sI4569
I336
sI4570
I336
sI4571
I336
sI4572
I336
sI4573
I336
sI4574
I336
sI4576
I336
sI4577
I336
sI4578
I336
sI4579
I336
sI4580
I336
sI4581
I336
sI4582
I336
sI4583
I336
sI4584
I336
sI4585
I336
sI4586
I336
sI4587
I336
sI4588
I336
sI4589
I336
sI4590
I259
sI4591
I336
sI4592
I336
sI4593
I336
sI4594
I252
sI4595
I336
sI4596
I336
sI4599
I336
sI4600
I336
sI4601
I336
sI4602
I444
sI4603
I336
sI4604
I336
sI4605
I336
sI4608
I336
sI4609
I336
sI4610
I336
sI4612
I336
sI4613
I336
sI4614
I336
sI4615
I336
sI4616
I444
sI4617
I340
sI4618
I252
sI4619
I370
sI4620
I370
sI4621
I252
sI4622
I370
sI4623
I370
sI4624
I370
sI4626
I240
sI4627
I240
sI4628
I370
sI4629
I240
sI4630
I240
sI4631
I240
sI4632
I252
sI4633
I370
sI4634
I370
sI4635
I240
sI4636
I240
sI4637
I370
sI4638
I240
sI4639
I370
sI4640
I240
sI4641
I370
sI4642
I240
sI4643
I240
sI4644
I370
sI4645
I240
sI4646
I240
sI4647
I240
sI4648
I252
sI4649
I240
sI4650
I240
sI4651
I370
sI4652
I240
sI4653
I240
sI4654
I240
sI4655
I240
sI4656
I370
sI4657
I240
sI4658
I370
sI4659
I370
sI4660
I240
sI4661
I370
sI4662
I370
sI4663
I370
sI4664
I370
sI4665
I370
sI4666
I240
sI4667
I240
sI4668
I370
sI4669
I370
sI4670
I370
sI4671
I240
sI4672
I240
sI4673
I370
sI4674
I240
sI4675
I240
sI4676
I370
sI4677
I240
sI4678
I240
sI4680
I240
sI4681
I240
sI4682
I240
sI4683
I240
sI4684
I370
sI4685
I252
sI4686
I240
sI4687
I240
sI4688
I370
sI4689
I370
sI4690
I240
sI4691
I370
sI4692
I240
sI4693
I240
sI4694
I370
sI4695
I370
sI4696
I370
sI4697
I240
sI4698
I370
sI4699
I240
sI4701
I240
sI4702
I252
sI4703
I370
sI4704
I252
sI4705
I370
sI4706
I240
sI4707
I370
sI4708
I240
sI4709
I240
sI4711
I240
sI4712
I370
sI4713
I240
sI4714
I370
sI4715
I240
sI4716
I370
sI4717
I240
sI4718
I370
sI4719
I370
sI4720
I240
sI4721
I370
sI4722
I252
sI4723
I252
sI4724
I240
sI4725
I240
sI4726
I370
sI4727
I240
sI4728
I370
sI4729
I240
sI4730
I370
sI4731
I240
sI4732
I240
sI4733
I240
sI4734
I240
sI4735
I370
sI4736
I370
sI4738
I240
sI4739
I370
sI4740
I240
sI4741
I240
sI4742
I370
sI4743
I370
sI4744
I240
sI4745
I240
sI4746
I355
sI4747
I370
sI4748
I370
sI4749
I370
sI4750
I240
sI4751
I370
sI4752
I370
sI4753
I240
sI4755
I240
sI4756
I370
sI4757
I252
sI4758
I252
sI4759
I252
sI4761
I252
sI4762
I252
sI4763
I252
sI4764
I252
sI4765
I252
sI4766
I252
sI4767
I252
sI4768
I252
sI4769
I252
sI4770
I252
sI4771
I252
sI4772
I252
sI4773
I252
sI4774
I252
sI4775
I252
sI4776
I252
sI4777
I252
sI4778
I252
sI4779
I252
sI4780
I252
sI4781
I252
sI4783
I252
sI4784
I252
sI4785
I252
sI4786
I252
sI4787
I252
sI4788
I252
sI4789
I252
sI4790
I252
sI4791
I252
sI4792
I252
sI4793
I252
sI4794
I252
sI4795
I252
sI4796
I252
sI4797
I252
sI4798
I252
sI4799
I252
sI4800
I425
sI4801
I252
sI4802
I252
sI4803
I252
sI4804
I252
sI4805
I252
sI4806
I252
sI4807
I252
sI4808
I252
sI4809
I252
sI4810
I425
sI4811
I240
sI4812
I425
sI4813
I252
sI4814
I252
sI4815
I252
sI4816
I252
sI4817
I252
sI4818
I252
sI4819
I252
sI4820
I252
sI4821
I252
sI4822
I252
sI4823
I252
sI4824
I252
sI4825
I252
sI4826
I252
sI4827
I252
sI4828
I252
sI4829
I252
sI4830
I252
sI4832
I240
sI4834
I252
sI4835
I252
sI4836
I252
sI4837
I425
sI4838
I252
sI4839
I252
sI4840
I252
sI4841
I252
sI4842
I425
sI4843
I252
sI4844
I252
sI4845
I252
sI4846
I252
sI4847
I252
sI4848
I252
sI4849
I252
sI4851
I252
sI4852
I252
sI4853
I252
sI4854
I252
sI4855
I252
sI4856
I425
sI4857
I252
sI4858
I252
sI4859
I252
sI4862
I252
sI4863
I252
sI4864
I252
sI4865
I252
sI4866
I252
sI4867
I252
sI4868
I252
sI4869
I252
sI4870
I252
sI4871
I252
sI4872
I444
sI4873
I252
sI4874
I252
sI4875
I252
sI4876
I252
sI4877
I252
sI4878
I252
sI4879
I252
sI4880
I252
sI4881
I252
sI4882
I252
sI4883
I252
sI4885
I252
sI4886
I252
sI4887
I252
sI4888
I252
sI4889
I252
sI4890
I252
sI4891
I252
sI4892
I252
sI4893
I252
sI4894
I252
sI4895
I252
sI4897
I252
sI4899
I252
sI4900
I336
sI4901
I240
sI4902
I336
sI4903
I336
sI4904
I336
sI4905
I336
sI4906
I336
sI4907
I336
sI4908
I240
sI4909
I336
sI4910
I336
sI4911
I240
sI4913
I336
sI4914
I336
sI4915
I336
sI4916
I240
sI4917
I336
sI4918
I336
sI4920
I336
sI4921
I336
sI4922
I336
sI4923
I240
sI4924
I336
sI4925
I336
sI4927
I336
sI4928
I336
sI4929
I336
sI4930
I336
sI4931
I336
sI4932
I336
sI4933
I336
sI4935
I336
sI4936
I240
sI4937
I240
sI4938
I336
sI4939
I336
sI4940
I370
sI4941
I336
sI4942
I336
sI4943
I240
sI4944
I283
sI4945
I240
sI4946
I240
sI4947
I240
sI4948
I336
sI4949
I240
sI4950
I336
sI4951
I240
sI4952
I336
sI4953
I336
sI4955
I240
sI4956
I336
sI4957
I336
sI4959
I336
sI4960
I336
sI4961
I336
sI4962
I336
sI4963
I336
sI4964
I336
sI4966
I336
sI4968
I336
sI4969
I336
sI4970
I336
sI4971
I336
sI4972
I240
sI4973
I336
sI4974
I240
sI4975
I336
sI4976
I336
sI4977
I336
sI4978
I240
sI4979
I336
sI4981
I336
sI4982
I240
sI4983
I240
sI4984
I336
sI4985
I240
sI4986
I336
sI4987
I240
sI4988
I336
sI4989
I336
sI4990
I240
sI4991
I336
sI4992
I240
sI4993
I240
sI4994
I336
sI4995
I370
sI4996
I336
sI4997
I240
sI4998
I336
sI4999
I336
sI5000
I240
sI5001
I240
sI5002
I336
sI5003
I240
sI5004
I240
sI5005
I240
sI5007
I336
sI5008
I336
sI5009
I336
sI5010
I240
sI5011
I240
sI5012
I336
sI5013
I336
sI5014
I240
sI5015
I336
sI5016
I240
sI5017
I336
sI5018
I336
sI5020
I336
sI5021
I336
sI5022
I336
sI5023
I240
sI5024
I240
sI5025
I240
sI5026
I336
sI5027
I240
sI5028
I240
sI5029
I336
sI5030
I240
sI5031
I240
sI5032
I336
sI5033
I336
sI5034
I336
sI5035
I336
sI5036
I240
sI5037
I240
sI5038
I336
sI5039
I240
sI5040
I240
sI5041
I240
sI5042
I240
sI5043
I240
sI5044
I336
sI5045
I336
sI5046
I336
sI5048
I336
sI5049
I240
sI5050
I240
sI5051
I240
sI5052
I240
sI5053
I240
sI5054
I336
sI5055
I240
sI5056
I240
sI5057
I240
sI5058
I336
sI5059
I336
sI5060
I240
sI5061
I336
sI5062
I240
sI5063
I240
sI5064
I240
sI5065
I240
sI5066
I336
sI5067
I240
sI5068
I336
sI5069
I252
sI5070
I252
sI5071
I252
sI5072
I252
sI5073
I252
sI5074
I252
sI5075
I252
sI5077
I252
sI5078
I252
sI5079
I252
sI5080
I252
sI5102
I425
sI5104
I252
sI5105
I252
sI5112
I425
sI5114
I425
sI5129
I425
sI5210
I336
sI5215
I407
sI5216
I407
sI5244
I378
sI5300
I252
sI5366
I420
sI5368
I289
sI5392
I336
sI5473
I283
sI5591
I280
sI5626
I370
sI5640
I370
sI5641
I370
sI5670
I370
sI5690
I444
sI5702
I370
sI5759
I265
sI5781
I336
sI5792
I240
sI5823
I280
sI5826
I280
sI5827
I227
sI5828
I280
sI5829
I280
sI5830
I280
sI5832
I227
sI5833
I280
sI5834
I280
sI5835
I280
sI5838
I434
sI5840
I420
sI5843
I227
sI5844
I280
sI5845
I280
sI5846
I280
sI5847
I280
sI5848
I227
sI5850
I280
sI5851
I280
sI5852
I323
sI5854
I227
sI5856
I280
sI5857
I227
sI5858
I280
sI5859
I280
sI5860
I227
sI5861
I227
sI5863
I420
sI5865
I280
sI5866
I280
sI5867
I420
sI5868
I280
sI5869
I227
sI5870
I406
sI5872
I420
sI5873
I280
sI5874
I280
sI5876
I280
sI5877
I280
sI5879
I280
sI5880
I280
sI5881
I280
sI5882
I280
sI5884
I420
sI5885
I280
sI5886
I280
sI5887
I280
sI5888
I280
sI5889
I280
sI5890
I280
sI5893
I280
sI5894
I280
sI5896
I280
sI5897
I280
sI5898
I227
sI5901
I280
sI5902
I280
sI5903
I280
sI5905
I280
sI5906
I280
sI5907
I280
sI5908
I280
sI5909
I280
sI5911
I227
sI5912
I280
sI5916
I227
sI5919
I280
sI5921
I444
sI5922
I280
sI5923
I280
sI5924
I280
sI5926
I280
sI5927
I227
sI5928
I420
sI5929
I420
sI5930
I280
sI5932
I280
sI5933
I280
sI5935
I280
sI5937
I280
sI5938
I227
sI5939
I280
sI5940
I280
sI5941
I280
sI5942
I280
sI5943
I280
sI5944
I280
sI5945
I227
sI5946
I265
sI5947
I280
sI5948
I280
sI5949
I280
sI5950
I280
sI5951
I420
sI5952
I434
sI5953
I434
sI5954
I434
sI5955
I265
sI5956
I420
sI5957
I227
sI5958
I227
sI5959
I420
sI5960
I420
sI5961
I420
sI5962
I420
sI5963
I227
sI5964
I420
sI5965
I420
sI5966
I227
sI5967
I420
sI5968
I420
sI5969
I227
sI5970
I420
sI5971
I420
sI5972
I420
sI5973
I420
sI5974
I227
sI5975
I227
sI5976
I227
sI5977
I420
sI5978
I420
sI5979
I420
sI5980
I420
sI5982
I420
sI5983
I420
sI5984
I420
sI5985
I420
sI5986
I420
sI5987
I420
sI5988
I420
sI5989
I420
sI5990
I420
sI5991
I420
sI5992
I420
sI5993
I227
sI5994
I227
sI5995
I420
sI5996
I227
sI5997
I227
sI5998
I420
sI5999
I420
sI6000
I227
sI6001
I227
sI6002
I227
sI6003
I420
sI6004
I420
sI6005
I227
sI6006
I227
sI6007
I227
sI6008
I420
sI6009
I227
sI6010
I227
sI6011
I227
sI6012
I227
sI6013
I280
sI6014
I227
sI6015
I227
sI6016
I227
sI6017
I227
sI6018
I420
sI6019
I420
sI6020
I227
sI6021
I420
sI6022
I227
sI6023
I227
sI6024
I420
sI6025
I227
sI6026
I420
sI6027
I227
sI6028
I227
sI6029
I227
sI6030
I420
sI6031
I420
sI6032
I227
sI6033
I227
sI6034
I227
sI6035
I227
sI6036
I227
sI6037
I227
sI6038
I227
sI6039
I227
sI6040
I420
sI6041
I227
sI6042
I420
sI6043
I420
sI6044
I227
sI6045
I227
sI6046
I420
sI6047
I227
sI6048
I420
sI6049
I420
sI6050
I227
sI6051
I420
sI6052
I227
sI6053
I420
sI6054
I420
sI6055
I420
sI6056
I420
sI6057
I227
sI6058
I420
sI6059
I420
sI6060
I227
sI6061
I420
sI6062
I227
sI6063
I227
sI6064
I420
sI6065
I420
sI6066
I406
sI6067
I420
sI6068
I227
sI6069
I227
sI6070
I227
sI6071
I420
sI6072
I227
sI6073
I280
sI6074
I227
sI6075
I420
sI6076
I227
sI6077
I227
sI6078
I227
sI6079
I420
sI6080
I227
sI6081
I420
sI6082
I227
sI6083
I420
sI6084
I227
sI6085
I227
sI6086
I420
sI6087
I227
sI6088
I227
sI6089
I420
sI6090
I227
sI6091
I420
sI6092
I227
sI6093
I227
sI6094
I227
sI6095
I420
sI6096
I227
sI6097
I420
sI6098
I227
sI6099
I227
sI6100
I227
sI6101
I420
sI6102
I227
sI6103
I227
sI6104
I420
sI6105
I227
sI6106
I420
sI6107
I420
sI6108
I420
sI6109
I227
sI6110
I227
sI6111
I227
sI6112
I420
sI6113
I227
sI6114
I420
sI6115
I227
sI6116
I420
sI6117
I420
sI6118
I227
sI6119
I420
sI6120
I420
sI6121
I227
sI6122
I227
sI6123
I227
sI6124
I420
sI6125
I420
sI6126
I227
sI6127
I227
sI6128
I227
sI6129
I420
sI6130
I420
sI6131
I227
sI6132
I227
sI6133
I227
sI6134
I420
sI6135
I420
sI6136
I227
sI6137
I227
sI6138
I227
sI6139
I420
sI6140
I227
sI6141
I420
sI6142
I420
sI6143
I227
sI6144
I420
sI6145
I420
sI6146
I227
sI6147
I265
sI6148
I420
sI6149
I420
sI6150
I434
sI6151
I420
sI6152
I420
sI6153
I420
sI6154
I420
sI6155
I420
sI6156
I420
sI6157
I420
sI6158
I420
sI6159
I420
sI6160
I420
sI6161
I420
sI6162
I420
sI6163
I406
sI6164
I420
sI6165
I420
sI6166
I420
sI6167
I420
sI6168
I420
sI6169
I420
sI6173
I227
sI6174
I227
sI6175
I227
sI6176
I227
sI6177
I227
sI6178
I227
sI6179
I227
sI6180
I227
sI6181
I227
sI6182
I227
sI6183
I280
sI6184
I227
sI6185
I227
sI6186
I227
sI6187
I227
sI6188
I280
sI6189
I227
sI6190
I227
sI6191
I227
sI6192
I227
sI6193
I227
sI6194
I227
sI6195
I227
sI6196
I227
sI6197
I280
sI6198
I280
sI6199
I227
sI6200
I227
sI6201
I227
sI6202
I227
sI6204
I227
sI6205
I227
sI6206
I227
sI6207
I227
sI6208
I227
sI6209
I227
sI6210
I227
sI6211
I227
sI6212
I227
sI6213
I227
sI6214
I227
sI6215
I227
sI6216
I227
sI6217
I227
sI6218
I280
sI6219
I227
sI6220
I227
sI6221
I227
sI6222
I227
sI6223
I227
sI6224
I227
sI6225
I227
sI6226
I227
sI6227
I280
sI6228
I227
sI6229
I280
sI6230
I280
sI6231
I227
sI6232
I227
sI6233
I227
sI6234
I227
sI6235
I227
sI6236
I227
sI6237
I227
sI6238
I227
sI6239
I227
sI6240
I227
sI6241
I227
sI6242
I227
sI6243
I280
sI6244
I227
sI6245
I227
sI6246
I227
sI6247
I227
sI6248
I227
sI6249
I227
sI6250
I227
sI6251
I227
sI6252
I227
sI6253
I227
sI6254
I227
sI6255
I227
sI6256
I227
sI6257
I227
sI6258
I227
sI6259
I227
sI6260
I227
sI6261
I227
sI6262
I227
sI6263
I227
sI6264
I227
sI6265
I227
sI6266
I227
sI6267
I227
sI6268
I227
sI6269
I227
sI6270
I227
sI6271
I227
sI6272
I227
sI6273
I227
sI6274
I227
sI6275
I227
sI6276
I227
sI6277
I280
sI6278
I227
sI6279
I227
sI6280
I280
sI6281
I227
sI6282
I280
sI6283
I280
sI6284
I280
sI6285
I227
sI6286
I280
sI6287
I227
sI6288
I227
sI6289
I280
sI6290
I227
sI6291
I280
sI6292
I227
sI6293
I227
sI6294
I280
sI6295
I280
sI6296
I280
sI6297
I280
sI6298
I280
sI6299
I280
sI6300
I280
sI6301
I280
sI6302
I227
sI6303
I227
sI6304
I227
sI6305
I227
sI6306
I420
sI6307
I227
sI6308
I227
sI6309
I227
sI6310
I227
sI6311
I227
sI6312
I227
sI6313
I227
sI6314
I227
sI6315
I227
sI6316
I227
sI6317
I227
sI6318
I227
sI6319
I227
sI6320
I227
sI6321
I227
sI6322
I227
sI6323
I227
sI6324
I227
sI6325
I227
sI6326
I227
sI6327
I227
sI6328
I227
sI6329
I227
sI6330
I227
sI6331
I227
sI6332
I227
sI6333
I227
sI6334
I227
sI6335
I227
sI6336
I227
sI6337
I227
sI6338
I227
sI6339
I227
sI6340
I227
sI6341
I227
sI6342
I227
sI6343
I227
sI6344
I227
sI6345
I227
sI6346
I227
sI6347
I227
sI6348
I227
sI6349
I227
sI6350
I227
sI6351
I434
sI6352
I227
sI6353
I252
sI6354
I227
sI6355
I227
sI6356
I227
sI6357
I227
sI6358
I227
sI6359
I227
sI6360
I227
sI6361
I417
sI6362
I227
sI6363
I227
sI6364
I227
sI6365
I227
sI6366
I227
sI6367
I227
sI6368
I227
sI6369
I227
sI6370
I227
sI6371
I227
sI6372
I227
sI6373
I227
sI6374
I227
sI6375
I227
sI6376
I227
sI6377
I227
sI6378
I227
sI6379
I227
sI6380
I227
sI6381
I227
sI6382
I227
sI6383
I227
sI6384
I227
sI6385
I227
sI6386
I227
sI6387
I227
sI6388
I227
sI6389
I227
sI6390
I227
sI6391
I227
sI6392
I227
sI6393
I227
sI6394
I227
sI6395
I227
sI6396
I227
sI6397
I227
sI6398
I227
sI6399
I420
sI6400
I227
sI6401
I227
sI6402
I227
sI6403
I227
sI6404
I227
sI6405
I227
sI6406
I227
sI6407
I227
sI6408
I227
sI6409
I227
sI6410
I227
sI6411
I227
sI6412
I227
sI6413
I283
sI6414
I227
sI6415
I227
sI6416
I227
sI6417
I227
sI6418
I227
sI6419
I227
sI6420
I227
sI6421
I227
sI6422
I227
sI6423
I227
sI6424
I227
sI6425
I227
sI6426
I227
sI6427
I227
sI6428
I227
sI6429
I227
sI6430
I227
sI6431
I227
sI6432
I227
sI6433
I227
sI6434
I227
sI6435
I227
sI6436
I227
sI6437
I227
sI6438
I227
sI6439
I227
sI6440
I227
sI6441
I227
sI6442
I227
sI6443
I227
sI6444
I227
sI6445
I227
sI6446
I227
sI6447
I227
sI6448
I227
sI6449
I227
sI6450
I227
sI6451
I227
sI6452
I227
sI6453
I227
sI6454
I227
sI6455
I227
sI6456
I240
sI6457
I227
sI6458
I227
sI6459
I227
sI6460
I227
sI6461
I227
sI6462
I227
sI6463
I227
sI6464
I227
sI6465
I227
sI6466
I227
sI6467
I227
sI6468
I227
sI6469
I227
sI6470
I227
sI6471
I227
sI6472
I227
sI6473
I227
sI6474
I227
sI6475
I227
sI6476
I227
sI6477
I227
sI6478
I227
sI6479
I227
sI6481
I227
sI6482
I227
sI6483
I227
sI6484
I227
sI6485
I227
sI6486
I227
sI6487
I227
sI6488
I227
sI6489
I227
sI6490
I227
sI6491
I265
sI6492
I227
sI6493
I227
sI6494
I227
sI6495
I227
sI6496
I227
sI6498
I227
sI6499
I227
sI6500
I227
sI6501
I227
sI6502
I227
sI6503
I227
sI6504
I227
sI6505
I227
sI6506
I227
sI6507
I227
sI6508
I227
sI6509
I227
sI6510
I227
sI6511
I227
sI6512
I227
sI6513
I227
sI6514
I227
sI6515
I227
sI6516
I280
sI6517
I227
sI6518
I227
sI6519
I227
sI6520
I227
sI6521
I406
sI6522
I227
sI6523
I227
sI6524
I227
sI6525
I406
sI6526
I227
sI6527
I227
sI6528
I227
sI6529
I227
sI6530
I227
sI6531
I227
sI6532
I227
sI6533
I227
sI6534
I227
sI6535
I227
sI6536
I227
sI6537
I227
sI6538
I227
sI6539
I227
sI6540
I227
sI6541
I227
sI6542
I227
sI6543
I227
sI6544
I227
sI6545
I227
sI6546
I227
sI6547
I227
sI6548
I227
sI6549
I227
sI6550
I227
sI6551
I227
sI6552
I227
sI6553
I227
sI6554
I227
sI6555
I227
sI6556
I323
sI6558
I227
sI6559
I323
sI6560
I323
sI6561
I323
sI6562
I323
sI6563
I323
sI6564
I323
sI6565
I323
sI6566
I420
sI6567
I323
sI6568
I227
sI6569
I323
sI6570
I323
sI6571
I323
sI6572
I323
sI6573
I323
sI6574
I323
sI6575
I323
sI6577
I227
sI6578
I323
sI6579
I323
sI6580
I323
sI6603
I333
sI6651
I350
sI6653
I388
sI6657
I311
sI6659
I324
sI6661
I262
sI6662
I239
sI6663
I246
sI6665
I284
sI6667
I355
sI6668
I343
sI6673
I324
sI6675
I262
sI6677
I248
sI6678
I311
sI6679
I262
sI6680
I311
sI6684
I229
sI6685
I372
sI6686
I355
sI6691
I311
sI6692
I311
sI6697
I311
sI6700
I355
sI6702
I343
sI6703
I343
sI6709
I262
sI6712
I311
sI6719
I248
sI6720
I388
sI6722
I336
sI6723
I239
sI6726
I311
sI6727
I311
sI6731
I284
sI6732
I245
sI6742
I336
sI6745
I311
sI6746
I311
sI6748
I343
sI6749
I261
sI6751
I428
sI6752
I355
sI6753
I311
sI6756
I336
sI6757
I295
sI6758
I270
sI6760
I245
sI6763
I388
sI6765
I311
sI6769
I388
sI6772
I248
sI6773
I248
sI6774
I324
sI6782
I324
sI6783
I248
sI6784
I248
sI6787
I388
sI6788
I324
sI6789
I324
sI6790
I388
sI6792
I311
sI6794
I355
sI6797
I355
sI6801
I284
sI6802
I267
sI6803
I372
sI6804
I324
sI6806
I311
sI6807
I248
sI6808
I388
sI6814
I311
sI6822
I311
sI6824
I270
sI6827
I261
sI6828
I245
sI6829
I261
sI6831
I283
sI6832
I343
sI6834
I355
sI6835
I343
sI6840
I311
sI6841
I355
sI6842
I311
sI6845
I355
sI6846
I355
sI6847
I283
sI6848
I284
sI6850
I311
sI6852
I258
sI6853
I245
sI6854
I245
sI6855
I261
sI6857
I372
sI6861
I343
sI6862
I245
sI6865
I261
sI6869
I295
sI6873
I267
sI6875
I343
sI6876
I355
sI6877
I311
sI6878
I343
sI6879
I355
sI6882
I261
sI6883
I343
sI6888
I355
sI6889
I311
sI6892
I261
sI6893
I284
sI6894
I284
sI6896
I311
sI6899
I246
sI6912
I417
sI6913
I261
sI6917
I349
sI6918
I314
sI6919
I349
sI6920
I314
sI6921
I394
sI6930
I349
sI6932
I360
sI6935
I314
sI6951
I349
sI6954
I349
sI6955
I378
sI6959
I394
sI6964
I423
sI6966
I423
sI6967
I349
sI6968
I349
sI6971
I314
sI6975
I423
sI6985
I407
sI6988
I394
sI6991
I394
sI6994
I349
sI6996
I314
sI6999
I349
sI7004
I423
sI7005
I394
sI7006
I349
sI7007
I378
sI7010
I349
sI7012
I314
sI7013
I394
sI7020
I423
sI7105
I336
sI7172
I308
sI7173
I308
sI7176
I434
sI7178
I308
sI7179
I308
sI7182
I308
sI7184
I308
sI7186
I308
sI7187
I308
sI7199
I336
sI7200
I420
sI7201
I308
sI7210
I308
sI7211
I308
sI7232
I434
sI7237
I308
sI7243
I308
sI7245
I434
sI7246
I308
sI7258
I308
sI7272
I434
sI7276
I434
sI7282
I434
sI7283
I434
sI7286
I434
sI7288
I434
sI7293
I434
sI7295
I434
sI7296
I434
sI7297
I434
sI7304
I434
sI7305
I434
sI7308
I434
sI7312
I434
sI7313
I434
sI7316
I434
sI7319
I434
sI7322
I434
sI7324
I434
sI7325
I434
sI7327
I434
sI7332
I434
sI7338
I434
sI7342
I434
sI7429
I434
sI7430
I434
sI7431
I434
sI7432
I434
sI7487
I434
sI7488
I333
sI7489
I434
sI7490
I434
sI7491
I434
sI7492
I434
sI7493
I434
sI7494
I434
sI7495
I434
sI7497
I434
sI7499
I434
sI7500
I434
sI7501
I434
sI7502
I434
sI7504
I434
sI7505
I434
sI7506
I434
sI7507
I434
sI7511
I308
sI7530
I265
sI7607
I340
sI7846
I434
sI7848
I425
sI7849
I4441
sI7850
I4408
sI7851
I4408
sI7852
I4441
sI7853
I4408
sI7854
I4408
sI7855
I4408
sI7856
I4408
sI7857
I4441
sI7858
I4454
sI7859
I4408
sI7860
I4399
sI7861
I4399
sI7862
I4408
sI7864
I4408
sI7865
I4408
sI7866
I4412
sI7867
I4408
sI7868
I4427
sI7869
I4427
sI7870
I4427
sI7871
I4439
sI7872
I4440
sI7873
I4440
sI7874
I4427
sI7875
I4427
sI7876
I4408
sI7877
I4427
sI7878
I4441
sI7879
I4408
sI7880
I4398
sI7882
I4408
sI7883
I4408
sI7884
I4408
sI7885
I4408
sI7888
I4408
sI7889
I4408
sI7890
I4408
sI7891
I4434
sI7892
I4399
sI7893
I4418
sI7894
I4399
sI7895
I4418
sI7896
I4428
sI7897
I4399
sI7898
I4399
sI7899
I4399
sI7900
I4399
sI7901
I4399
sI7902
I4399
sI7904
I4399
sI7905
I4399
sI7906
I4399
sI7907
I4399
sI7908
I4399
sI7909
I4399
sI7910
I4418
sI7911
I4399
sI7912
I4399
sI7913
I4418
sI7914
I4399
sI7915
I4399
sI7916
I4399
sI7917
I4399
sI7918
I4447
sI7919
I4399
sI7920
I4447
sI7921
I4447
sI7922
I4447
sI7923
I4399
sI7924
I4399
sI7925
I4399
sI7926
I4447
sI7927
I4447
sI7928
I4399
sI7929
I4399
sI7930
I4399
sI7931
I4418
sI7932
I4399
sI7933
I4399
sI7934
I4418
sI7935
I4447
sI7936
I4399
sI7937
I4447
sI7938
I4399
sI7939
I4399
sI7940
I4447
sI7941
I4418
sI7942
I4447
sI7943
I4447
sI7944
I4399
sI7945
I4399
sI7946
I4447
sI7947
I4399
sI7948
I4447
sI7949
I4399
sI7950
I4447
sI7951
I4399
sI7952
I4399
sI7953
I4399
sI7954
I4447
sI7955
I4399
sI7956
I4399
sI7957
I4447
sI7958
I4447
sI7959
I4399
sI7960
I4399
sI7961
I4447
sI7962
I4399
sI7963
I4399
sI7964
I4447
sI7965
I4399
sI7966
I4447
sI7967
I4399
sI7968
I4447
sI7969
I4399
sI7970
I4399
sI7971
I4399
sI7972
I4399
sI7973
I4418
sI7974
I4447
sI7975
I4399
sI7976
I4399
sI7977
I4399
sI7978
I4447
sI7979
I4399
sI7980
I4399
sI7981
I4399
sI7982
I4399
sI7983
I4399
sI7984
I4416
sI7985
I4399
sI7986
I4399
sI7987
I4399
sI7988
I4447
sI7989
I4399
sI7990
I4447
sI7991
I4447
sI7992
I4399
sI7993
I4399
sI7994
I4416
sI7995
I4399
sI7996
I4447
sI7997
I4399
sI7998
I4399
sI7999
I4399
sI8000
I4399
sI8001
I4399
sI8002
I4399
sI8003
I4447
sI8004
I4447
sI8005
I4399
sI8006
I4447
sI8007
I4447
sI8008
I4399
sI8009
I4399
sI8010
I4447
sI8012
I4399
sI8013
I4399
sI8014
I4447
sI8015
I4447
sI8016
I4418
sI8017
I4447
sI8018
I4447
sI8019
I4427
sI8020
I4399
sI8021
I4399
sI8022
I4447
sI8023
I4399
sI8024
I4447
sI8025
I4418
sI8026
I4399
sI8027
I4399
sI8028
I4399
sI8029
I4399
sI8030
I4399
sI8031
I4447
sI8032
I4447
sI8033
I4399
sI8034
I4447
sI8035
I4399
sI8036
I4399
sI8037
I4441
sI8038
I4399
sI8039
I4418
sI8040
I4399
sI8041
I4399
sI8042
I4447
sI8043
I4399
sI8044
I4399
sI8045
I4447
sI8047
I4447
sI8048
I4447
sI8049
I4408
sI8050
I4447
sI8051
I4399
sI8052
I4399
sI8053
I4447
sI8054
I4399
sI8055
I4399
sI8056
I4399
sI8057
I4447
sI8058
I4447
sI8059
I4447
sI8060
I4399
sI8061
I4447
sI8062
I4399
sI8063
I4399
sI8064
I4399
sI8065
I4399
sI8066
I4447
sI8067
I4399
sI8068
I4399
sI8070
I4418
sI8071
I4399
sI8072
I4399
sI8073
I4399
sI8074
I4447
sI8075
I4399
sI8076
I4399
sI8077
I4399
sI8078
I4439
sI8079
I4399
sI8080
I4399
sI8081
I4399
sI8082
I4399
sI8083
I4399
sI8084
I4399
sI8085
I4399
sI8086
I4399
sI8087
I4399
sI8088
I4399
sI8089
I4399
sI8090
I4399
sI8091
I4418
sI8092
I4418
sI8093
I4399
sI8094
I4418
sI8095
I4418
sI8096
I4418
sI8097
I4418
sI8098
I4418
sI8099
I4414
sI8100
I4399
sI8101
I4418
sI8102
I4418
sI8103
I4418
sI8104
I4447
sI8105
I4399
sI8106
I4447
sI8107
I4399
sI8109
I4418
sI8110
I4418
sI8111
I4418
sI8112
I4418
sI8113
I4399
sI8114
I4399
sI8115
I4418
sI8116
I4399
sI8117
I4447
sI8118
I4447
sI8119
I4399
sI8120
I4399
sI8121
I4399
sI8122
I4399
sI8123
I4399
sI8124
I4399
sI8125
I4399
sI8126
I4399
sI8127
I4399
sI8128
I4399
sI8129
I4399
sI8130
I4399
sI8132
I4418
sI8134
I4447
sI8135
I4399
sI8136
I4447
sI8137
I4399
sI8139
I4436
sI8140
I4416
sI8141
I4436
sI8142
I4436
sI8143
I4436
sI8144
I4436
sI8145
I4436
sI8146
I4436
sI8147
I4436
sI8148
I4436
sI8149
I4436
sI8150
I4436
sI8151
I4436
sI8152
I4436
sI8153
I4436
sI8154
I4436
sI8155
I4436
sI8156
I4436
sI8157
I4450
sI8158
I4436
sI8159
I4436
sI8160
I4436
sI8161
I4436
sI8162
I4436
sI8163
I4436
sI8164
I4436
sI8165
I4436
sI8166
I4436
sI8167
I4436
sI8168
I4436
sI8170
I4436
sI8171
I4436
sI8172
I4436
sI8173
I4436
sI8174
I4436
sI8175
I4436
sI8176
I4436
sI8177
I4436
sI8178
I4436
sI8179
I4436
sI8180
I4436
sI8181
I4436
sI8182
I4436
sI8183
I4436
sI8185
I4436
sI8186
I4436
sI8187
I4436
sI8188
I4436
sI8189
I4436
sI8190
I4436
sI8191
I4436
sI8192
I4436
sI8193
I4436
sI8194
I4436
sI8195
I4436
sI8196
I4436
sI8197
I4436
sI8198
I4436
sI8199
I4436
sI8200
I4436
sI8201
I4436
sI8203
I4402
sI8204
I4436
sI8206
I4436
sI8207
I4436
sI8208
I4436
sI8209
I4436
sI8210
I4436
sI8211
I4436
sI8212
I4436
sI8213
I4436
sI8214
I4436
sI8215
I4436
sI8216
I4436
sI8217
I4436
sI8218
I4436
sI8219
I4436
sI8220
I4436
sI8221
I4436
sI8222
I4436
sI8223
I4436
sI8224
I4436
sI8225
I4436
sI8226
I4436
sI8227
I4436
sI8228
I4436
sI8229
I4436
sI8230
I4436
sI8231
I4436
sI8232
I4436
sI8233
I4436
sI8234
I4436
sI8235
I4436
sI8236
I4436
sI8237
I4436
sI8238
I4436
sI8239
I4436
sI8240
I4436
sI8241
I4436
sI8242
I4436
sI8243
I4436
sI8244
I4436
sI8245
I4436
sI8246
I4436
sI8247
I4436
sI8248
I4436
sI8249
I4436
sI8250
I4436
sI8251
I4436
sI8252
I4436
sI8253
I4436
sI8254
I4436
sI8255
I4436
sI8256
I4436
sI8257
I4436
sI8258
I4436
sI8259
I4436
sI8260
I4436
sI8261
I4436
sI8262
I4436
sI8263
I4436
sI8264
I4436
sI8265
I4436
sI8266
I4436
sI8267
I4436
sI8268
I4413
sI8269
I4436
sI8270
I4436
sI8271
I4436
sI8272
I4450
sI8273
I4417
sI8274
I4450
sI8275
I4450
sI8276
I4450
sI8277
I4408
sI8278
I4450
sI8279
I4450
sI8280
I4417
sI8281
I4441
sI8282
I4450
sI8283
I4450
sI8284
I4408
sI8285
I4450
sI8286
I4441
sI8287
I4441
sI8288
I4450
sI8289
I4450
sI8290
I4450
sI8291
I4441
sI8293
I4450
sI8294
I4450
sI8295
I4450
sI8296
I4450
sI8297
I4450
sI8299
I4450
sI8301
I4450
sI8302
I4441
sI8303
I4450
sI8304
I4441
sI8305
I4450
sI8306
I4450
sI8307
I4441
sI8308
I4441
sI8309
I4417
sI8310
I4417
sI8311
I4450
sI8312
I4450
sI8313
I4450
sI8314
I4441
sI8315
I4450
sI8316
I4441
sI8317
I4441
sI8318
I4450
sI8319
I4441
sI8320
I4441
sI8321
I4441
sI8322
I4441
sI8323
I4441
sI8324
I4450
sI8325
I4450
sI8326
I4450
sI8327
I4450
sI8328
I4450
sI8329
I4417
sI8330
I4408
sI8331
I4450
sI8332
I4417
sI8333
I4441
sI8334
I4450
sI8335
I4450
sI8336
I4441
sI8339
I4450
sI8340
I4417
sI8341
I4450
sI8342
I4441
sI8344
I4450
sI8345
I4450
sI8346
I4450
sI8347
I4441
sI8348
I4450
sI8349
I4441
sI8350
I4408
sI8351
I4441
sI8352
I4450
sI8353
I4450
sI8355
I4450
sI8356
I4450
sI8357
I4441
sI8358
I4450
sI8359
I4441
sI8360
I4450
sI8361
I4450
sI8362
I4441
sI8363
I4441
sI8364
I4441
sI8365
I4450
sI8366
I4450
sI8367
I4450
sI8368
I4450
sI8369
I4450
sI8370
I4450
sI8371
I4450
sI8372
I4450
sI8373
I4450
sI8374
I4450
sI8375
I4450
sI8376
I4450
sI8377
I4441
sI8378
I4450
sI8379
I4450
sI8380
I4398
sI8381
I4416
sI8382
I4398
sI8383
I4398
sI8384
I4398
sI8385
I4398
sI8386
I4398
sI8387
I4450
sI8388
I4398
sI8389
I4398
sI8390
I4398
sI8391
I4398
sI8392
I4398
sI8393
I4398
sI8394
I4398
sI8395
I4398
sI8396
I4398
sI8397
I4447
sI8398
I4398
sI8399
I4398
sI8400
I4398
sI8401
I4398
sI8402
I4398
sI8403
I4398
sI8404
I4398
sI8405
I4398
sI8406
I4398
sI8407
I4398
sI8408
I4398
sI8409
I4418
sI8410
I4398
sI8411
I4447
sI8412
I4398
sI8413
I4398
sI8415
I4414
sI8416
I4398
sI8417
I4398
sI8419
I4444
sI8420
I4398
sI8421
I4441
sI8422
I4418
sI8423
I4418
sI8424
I4398
sI8425
I4418
sI8426
I4447
sI8427
I4418
sI8428
I4398
sI8429
I4398
sI8430
I4398
sI8431
I4398
sI8432
I4398
sI8433
I4398
sI8434
I4398
sI8435
I4418
sI8436
I4398
sI8437
I4398
sI8438
I4418
sI8439
I4418
sI8440
I4418
sI8441
I4418
sI8443
I4398
sI8444
I4447
sI8446
I4418
sI8447
I4450
sI8448
I4416
sI8449
I4398
sI8450
I4398
sI8451
I4447
sI8452
I4398
sI8453
I4398
sI8454
I4398
sI8455
I4398
sI8456
I4398
sI8457
I4450
sI8458
I4418
sI8459
I4441
sI8460
I4447
sI8461
I4398
sI8462
I4398
sI8463
I4447
sI8464
I4447
sI8465
I4398
sI8467
I4398
sI8468
I4447
sI8469
I4398
sI8470
I4398
sI8471
I4398
sI8472
I4398
sI8473
I4398
sI8474
I4398
sI8475
I4398
sI8476
I4398
sI8477
I4398
sI8478
I4418
sI8479
I4398
sI8480
I4398
sI8482
I4398
sI8483
I4398
sI8485
I4405
sI8486
I4405
sI8487
I4405
sI8490
I4407
sI8492
I4407
sI8494
I4407
sI8495
I4405
sI8497
I4407
sI8500
I4407
sI8502
I4407
sI8504
I4407
sI8506
I4407
sI8510
I4407
sI8512
I4407
sI8514
I4407
sI8517
I4407
sI8520
I4407
sI8523
I4407
sI8524
I4407
sI8525
I4428
sI8526
I4407
sI8527
I4407
sI8533
I4407
sI8535
I4407
sI8538
I4453
sI8539
I4407
sI8540
I4407
sI8541
I4407
sI8542
I4407
sI8543
I4407
sI8544
I4407
sI8545
I4407
sI8546
I4407
sI8547
I4407
sI8548
I4407
sI8549
I4407
sI8550
I4407
sI8551
I4407
sI8552
I4407
sI8553
I4407
sI8554
I4407
sI8556
I4407
sI8557
I4407
sI8558
I4407
sI8562
I4405
sI8564
I4424
sI8566
I4448
sI8567
I4407
sI8571
I4407
sI8572
I4407
sI8574
I4407
sI8577
I4407
sI8578
I4407
sI8579
I4407
sI8581
I4407
sI8582
I4407
sI8584
I4407
sI8586
I4444
sI8587
I4407
sI8588
I4407
sI8589
I4407
sI8590
I4454
sI8592
I4453
sI8594
I4407
sI8596
I4407
sI8597
I4407
sI8598
I4453
sI8602
I4407
sI8604
I4407
sI8606
I4407
sI8607
I4407
sI8608
I4397
sI8611
I4407
sI8612
I4407
sI8613
I4401
sI8614
I4407
sI8615
I4454
sI8616
I4453
sI8618
I4407
sI8619
I4407
sI8620
I4407
sI8622
I4407
sI8623
I4407
sI8627
I4453
sI8628
I4407
sI8633
I4407
sI8634
I4407
sI8636
I4407
sI8642
I4405
sI8643
I4405
sI8644
I4407
sI8645
I4405
sI8647
I4405
sI8648
I4405
sI8649
I4405
sI8650
I4405
sI8652
I4454
sI8653
I4436
sI8655
I4454
sI8656
I4405
sI8657
I4407
sI8658
I4405
sI8659
I4405
sI8661
I4405
sI8662
I4454
sI8663
I4454
sI8664
I4405
sI8665
I4454
sI8666
I4405
sI8667
I4405
sI8668
I4405
sI8669
I4405
sI8670
I4407
sI8671
I4405
sI8673
I4407
sI8674
I4454
sI8675
I4407
sI8676
I4405
sI8677
I4407
sI8679
I4407
sI8681
I4446
sI8682
I4405
sI8683
I4405
sI8684
I4405
sI8685
I4407
sI8686
I4405
sI8690
I4407
sI8691
I4405
sI8692
I4407
sI8695
I4405
sI8696
I4407
sI8697
I4405
sI8698
I4407
sI8699
I4407
sI8702
I4407
sI8703
I4407
sI8704
I4407
sI8705
I4407
sI8706
I4407
sI8707
I4407
sI8709
I4407
sI8711
I4407
sI8712
I4407
sI8713
I4407
sI8714
I4407
sI8715
I4407
sI8716
I4407
sI8717
I4407
sI8718
I4407
sI8719
I4407
sI8720
I4407
sI8721
I4407
sI8723
I4407
sI8724
I4407
sI8725
I4407
sI8726
I4407
sI8727
I4401
sI8728
I4407
sI8729
I4407
sI8730
I4407
sI8731
I4407
sI8732
I4407
sI8733
I4407
sI8734
I4453
sI8736
I4407
sI8737
I4407
sI8738
I4407
sI8740
I4407
sI8741
I4407
sI8747
I4453
sI8749
I4407
sI8751
I4405
sI8754
I4407
sI8755
I4407
sI8758
I4407
sI8759
I4407
sI8762
I4407
sI8763
I4407
sI8764
I4407
sI8766
I4407
sI8769
I4407
sI8771
I4407
sI8772
I4407
sI8774
I4407
sI8775
I4407
sI8776
I4407
sI8777
I4407
sI8778
I4407
sI8779
I4407
sI8780
I4407
sI8781
I4407
sI8784
I4407
sI8788
I4407
sI8789
I4407
sI8791
I4407
sI8792
I4407
sI8793
I4453
sI8794
I4407
sI8795
I4407
sI8796
I4453
sI8797
I4453
sI8798
I4407
sI8799
I4407
sI8800
I4407
sI8801
I4407
sI8802
I4407
sI8803
I4413
sI8804
I4453
sI8805
I4407
sI8806
I4407
sI8807
I4407
sI8809
I4407
sI8810
I4407
sI8811
I4407
sI8812
I4407
sI8814
I4407
sI8815
I4407
sI8816
I4407
sI8817
I4407
sI8828
I4407
sI8829
I4444
sI8831
I4444
sI8832
I4401
sI8833
I4405
sI8834
I4401
sI8835
I4405
sI8836
I4405
sI8837
I4401
sI8840
I4401
sI8841
I4401
sI8842
I4401
sI8844
I4401
sI8845
I4401
sI8846
I4401
sI8847
I4412
sI8848
I4401
sI8850
I4405
sI8851
I4405
sI8852
I4444
sI8853
I4405
sI8854
I4401
sI8855
I4400
sI8856
I4444
sI8857
I4405
sI8858
I4405
sI8859
I4400
sI8860
I4444
sI8861
I4401
sI8862
I4405
sI8863
I4436
sI8864
I4401
sI8865
I4405
sI8866
I4405
sI8867
I4405
sI8868
I4405
sI8869
I4405
sI8870
I4401
sI8871
I4405
sI8872
I4401
sI8873
I4405
sI8875
I4405
sI8876
I4405
sI8877
I4400
sI8878
I4401
sI8879
I4401
sI8880
I4405
sI8881
I4401
sI8882
I4401
sI8883
I4401
sI8884
I4401
sI8885
I4401
sI8886
I4400
sI8887
I4401
sI8888
I4401
sI8889
I4401
sI8890
I4401
sI8891
I4405
sI8893
I4400
sI8894
I4401
sI8895
I4401
sI8896
I4405
sI8897
I4401
sI8899
I4401
sI8900
I4401
sI8901
I4401
sI8902
I4401
sI8903
I4401
sI8904
I4401
sI8905
I4401
sI8906
I4401
sI8907
I4401
sI8908
I4401
sI8915
I4418
sI8916
I4425
sI8917
I4410
sI8918
I4400
sI8919
I4400
sI8921
I4410
sI8923
I4410
sI8924
I4410
sI8925
I4401
sI8930
I4401
sI8931
I4407
sI8933
I4401
sI8936
I4401
sI8937
I4401
sI8938
I4401
sI8940
I4401
sI8941
I4410
sI8944
I4425
sI8945
I4410
sI8946
I4410
sI8949
I4400
sI8950
I4401
sI8951
I4401
sI8953
I4401
sI8954
I4405
sI8955
I4405
sI8956
I4428
sI8963
I4444
sI8964
I4444
sI8965
I4405
sI8966
I4400
sI8968
I4401
sI8969
I4401
sI8970
I4401
sI8972
I4407
sI8974
I4401
sI8975
I4401
sI8976
I4401
sI8977
I4444
sI8978
I4401
sI8979
I4401
sI8981
I4401
sI8983
I4401
sI8986
I4401
sI8988
I4401
sI8990
I4401
sI8991
I4401
sI8992
I4454
sI8994
I4401
sI8995
I4401
sI8997
I4401
sI9001
I4401
sI9002
I4401
sI9006
I4405
sI9007
I4401
sI9010
I4401
sI9011
I4450
sI9013
I4444
sI9014
I4454
sI9015
I4407
sI9016
I4407
sI9017
I4444
sI9018
I4454
sI9019
I4454
sI9020
I4444
sI9021
I4454
sI9022
I4444
sI9023
I4444
sI9024
I4444
sI9025
I4444
sI9026
I4413
sI9027
I4454
sI9028
I4444
sI9029
I4407
sI9030
I4448
sI9031
I4454
sI9032
I4444
sI9033
I4444
sI9034
I4444
sI9035
I4444
sI9036
I4444
sI9037
I4433
sI9038
I4433
sI9039
I4433
sI9040
I4433
sI9041
I4444
sI9042
I4444
sI9043
I4444
sI9044
I4444
sI9045
I4444
sI9046
I4454
sI9047
I4407
sI9048
I4407
sI9049
I4444
sI9050
I4444
sI9051
I4444
sI9052
I4454
sI9053
I4454
sI9054
I4444
sI9055
I4454
sI9056
I4444
sI9057
I4444
sI9058
I4444
sI9059
I4407
sI9060
I4444
sI9061
I4444
sI9062
I4444
sI9063
I4454
sI9064
I4444
sI9065
I4444
sI9066
I4444
sI9067
I4444
sI9068
I4444
sI9069
I4454
sI9070
I4454
sI9071
I4454
sI9072
I4444
sI9073
I4444
sI9074
I4454
sI9075
I4444
sI9076
I4444
sI9077
I4444
sI9078
I4444
sI9079
I4428
sI9080
I4407
sI9081
I4454
sI9083
I4429
sI9084
I4444
sI9085
I4433
sI9086
I4433
sI9087
I4433
sI9088
I4433
sI9089
I4454
sI9090
I4433
sI9091
I4433
sI9092
I4433
sI9093
I4433
sI9094
I4433
sI9095
I4433
sI9096
I4433
sI9097
I4429
sI9098
I4433
sI9099
I4429
sI9100
I4429
sI9101
I4433
sI9102
I4433
sI9103
I4429
sI9104
I4433
sI9105
I4433
sI9106
I4444
sI9107
I4453
sI9108
I4444
sI9109
I4407
sI9110
I4407
sI9111
I4407
sI9112
I4407
sI9113
I4429
sI9114
I4407
sI9115
I4407
sI9116
I4407
sI9117
I4407
sI9118
I4407
sI9119
I4407
sI9120
I4447
sI9122
I4433
sI9123
I4397
sI9124
I4397
sI9126
I4402
sI9127
I4397
sI9129
I4397
sI9130
I4397
sI9131
I4423
sI9132
I4397
sI9133
I4397
sI9134
I4397
sI9135
I4450
sI9136
I4402
sI9137
I4423
sI9138
I4402
sI9139
I4397
sI9140
I4397
sI9142
I4397
sI9143
I4397
sI9144
I4397
sI9145
I4397
sI9146
I4397
sI9147
I4397
sI9148
I4397
sI9149
I4397
sI9150
I4397
sI9151
I4397
sI9152
I4397
sI9153
I4397
sI9154
I4397
sI9155
I4397
sI9156
I4397
sI9157
I4397
sI9158
I4397
sI9159
I4397
sI9160
I4397
sI9161
I4397
sI9162
I4402
sI9163
I4397
sI9164
I4397
sI9165
I4397
sI9166
I4397
sI9167
I4397
sI9168
I4397
sI9169
I4397
sI9170
I4397
sI9171
I4397
sI9172
I4402
sI9173
I4402
sI9174
I4397
sI9175
I4402
sI9176
I4397
sI9177
I4397
sI9178
I4397
sI9179
I4402
sI9180
I4402
sI9181
I4429
sI9182
I4397
sI9183
I4397
s.